
kuart.elf:     file format elf32-littleriscv


Disassembly of section .text:

10000000 <_ftext>:
10000000:	0b00006f          	j	100000b0 <crt_init>
10000004:	00000013          	nop
10000008:	00000013          	nop
1000000c:	00000013          	nop
10000010:	00000013          	nop
10000014:	00000013          	nop
10000018:	00000013          	nop
1000001c:	00000013          	nop

10000020 <trap_entry>:
10000020:	fe112e23          	sw	ra,-4(sp)
10000024:	fe512c23          	sw	t0,-8(sp)
10000028:	fe612a23          	sw	t1,-12(sp)
1000002c:	fe712823          	sw	t2,-16(sp)
10000030:	fea12623          	sw	a0,-20(sp)
10000034:	feb12423          	sw	a1,-24(sp)
10000038:	fec12223          	sw	a2,-28(sp)
1000003c:	fed12023          	sw	a3,-32(sp)
10000040:	fce12e23          	sw	a4,-36(sp)
10000044:	fcf12c23          	sw	a5,-40(sp)
10000048:	fd012a23          	sw	a6,-44(sp)
1000004c:	fd112823          	sw	a7,-48(sp)
10000050:	fdc12623          	sw	t3,-52(sp)
10000054:	fdd12423          	sw	t4,-56(sp)
10000058:	fde12223          	sw	t5,-60(sp)
1000005c:	fdf12023          	sw	t6,-64(sp)
10000060:	fc010113          	addi	sp,sp,-64
10000064:	140000ef          	jal	ra,100001a4 <isr>
10000068:	03c12083          	lw	ra,60(sp)
1000006c:	03812283          	lw	t0,56(sp)
10000070:	03412303          	lw	t1,52(sp)
10000074:	03012383          	lw	t2,48(sp)
10000078:	02c12503          	lw	a0,44(sp)
1000007c:	02812583          	lw	a1,40(sp)
10000080:	02412603          	lw	a2,36(sp)
10000084:	02012683          	lw	a3,32(sp)
10000088:	01c12703          	lw	a4,28(sp)
1000008c:	01812783          	lw	a5,24(sp)
10000090:	01412803          	lw	a6,20(sp)
10000094:	01012883          	lw	a7,16(sp)
10000098:	00c12e03          	lw	t3,12(sp)
1000009c:	00812e83          	lw	t4,8(sp)
100000a0:	00412f03          	lw	t5,4(sp)
100000a4:	00012f83          	lw	t6,0(sp)
100000a8:	04010113          	addi	sp,sp,64
100000ac:	30200073          	mret

100000b0 <crt_init>:
100000b0:	60000113          	li	sp,1536
100000b4:	00000517          	auipc	a0,0x0
100000b8:	f6c50513          	addi	a0,a0,-148 # 10000020 <trap_entry>
100000bc:	30551073          	csrw	mtvec,a0

100000c0 <sram_init>:
100000c0:	28000517          	auipc	a0,0x28000
100000c4:	f4050513          	addi	a0,a0,-192 # 38000000 <__mulsi3>
100000c8:	28000597          	auipc	a1,0x28000
100000cc:	47458593          	addi	a1,a1,1140 # 3800053c <_esram>
100000d0:	00001617          	auipc	a2,0x1
100000d4:	57860613          	addi	a2,a2,1400 # 10001648 <_esram_rom>

100000d8 <sram_loop>:
100000d8:	00b50c63          	beq	a0,a1,100000f0 <data_init>
100000dc:	00062683          	lw	a3,0(a2)
100000e0:	00d52023          	sw	a3,0(a0)
100000e4:	00450513          	addi	a0,a0,4
100000e8:	00460613          	addi	a2,a2,4
100000ec:	fedff06f          	j	100000d8 <sram_loop>

100000f0 <data_init>:
100000f0:	00000513          	li	a0,0
100000f4:	10000593          	li	a1,256
100000f8:	00001617          	auipc	a2,0x1
100000fc:	45060613          	addi	a2,a2,1104 # 10001548 <_erodata>

10000100 <data_loop>:
10000100:	00b50c63          	beq	a0,a1,10000118 <bss_init>
10000104:	00062683          	lw	a3,0(a2)
10000108:	00d52023          	sw	a3,0(a0)
1000010c:	00450513          	addi	a0,a0,4
10000110:	00460613          	addi	a2,a2,4
10000114:	fedff06f          	j	10000100 <data_loop>

10000118 <bss_init>:
10000118:	10000513          	li	a0,256
1000011c:	19800593          	li	a1,408

10000120 <bss_loop>:
10000120:	00b50863          	beq	a0,a1,10000130 <bss_done>
10000124:	00052023          	sw	zero,0(a0)
10000128:	00450513          	addi	a0,a0,4
1000012c:	ff5ff06f          	j	10000120 <bss_loop>

10000130 <bss_done>:
10000130:	00001537          	lui	a0,0x1
10000134:	88050513          	addi	a0,a0,-1920 # 880 <_fstack+0x280>
10000138:	30451073          	csrw	mie,a0
1000013c:	1c0000ef          	jal	ra,100002fc <main>

10000140 <infinit_loop>:
10000140:	0000006f          	j	10000140 <infinit_loop>

10000144 <flush_cpu_icache>:
10000144:	ff010113          	addi	sp,sp,-16
10000148:	00812623          	sw	s0,12(sp)
1000014c:	01010413          	addi	s0,sp,16
10000150:	00000013          	nop
10000154:	00c12403          	lw	s0,12(sp)
10000158:	01010113          	addi	sp,sp,16
1000015c:	00008067          	ret

10000160 <flush_cpu_dcache>:
10000160:	ff010113          	addi	sp,sp,-16
10000164:	00812623          	sw	s0,12(sp)
10000168:	01010413          	addi	s0,sp,16
1000016c:	00000013          	nop
10000170:	00c12403          	lw	s0,12(sp)
10000174:	01010113          	addi	sp,sp,16
10000178:	00008067          	ret

1000017c <irq_setmask>:
1000017c:	fe010113          	addi	sp,sp,-32
10000180:	00812e23          	sw	s0,28(sp)
10000184:	02010413          	addi	s0,sp,32
10000188:	fea42623          	sw	a0,-20(s0)
1000018c:	fec42783          	lw	a5,-20(s0)
10000190:	bc079073          	csrw	0xbc0,a5
10000194:	00000013          	nop
10000198:	01c12403          	lw	s0,28(sp)
1000019c:	02010113          	addi	sp,sp,32
100001a0:	00008067          	ret

100001a4 <isr>:
100001a4:	ff010113          	addi	sp,sp,-16
100001a8:	00112623          	sw	ra,12(sp)
100001ac:	00812423          	sw	s0,8(sp)
100001b0:	01010413          	addi	s0,sp,16
100001b4:	00000513          	li	a0,0
100001b8:	fc5ff0ef          	jal	ra,1000017c <irq_setmask>
100001bc:	00000013          	nop
100001c0:	00c12083          	lw	ra,12(sp)
100001c4:	00812403          	lw	s0,8(sp)
100001c8:	01010113          	addi	sp,sp,16
100001cc:	00008067          	ret

100001d0 <flush_cpu_icache>:
100001d0:	ff010113          	addi	sp,sp,-16
100001d4:	00812623          	sw	s0,12(sp)
100001d8:	01010413          	addi	s0,sp,16
100001dc:	00000013          	nop
100001e0:	00c12403          	lw	s0,12(sp)
100001e4:	01010113          	addi	sp,sp,16
100001e8:	00008067          	ret

100001ec <flush_cpu_dcache>:
100001ec:	ff010113          	addi	sp,sp,-16
100001f0:	00812623          	sw	s0,12(sp)
100001f4:	01010413          	addi	s0,sp,16
100001f8:	00000013          	nop
100001fc:	00c12403          	lw	s0,12(sp)
10000200:	01010113          	addi	sp,sp,16
10000204:	00008067          	ret

10000208 <flush_cpu_icache>:
10000208:	ff010113          	addi	sp,sp,-16
1000020c:	00812623          	sw	s0,12(sp)
10000210:	01010413          	addi	s0,sp,16
10000214:	00000013          	nop
10000218:	00c12403          	lw	s0,12(sp)
1000021c:	01010113          	addi	sp,sp,16
10000220:	00008067          	ret

10000224 <flush_cpu_dcache>:
10000224:	ff010113          	addi	sp,sp,-16
10000228:	00812623          	sw	s0,12(sp)
1000022c:	01010413          	addi	s0,sp,16
10000230:	00000013          	nop
10000234:	00c12403          	lw	s0,12(sp)
10000238:	01010113          	addi	sp,sp,16
1000023c:	00008067          	ret

10000240 <putchar>:
10000240:	fe010113          	addi	sp,sp,-32
10000244:	00112e23          	sw	ra,28(sp)
10000248:	00812c23          	sw	s0,24(sp)
1000024c:	02010413          	addi	s0,sp,32
10000250:	00050793          	mv	a5,a0
10000254:	fef407a3          	sb	a5,-17(s0)
10000258:	fef44703          	lbu	a4,-17(s0)
1000025c:	00a00793          	li	a5,10
10000260:	00f71663          	bne	a4,a5,1000026c <putchar+0x2c>
10000264:	00d00513          	li	a0,13
10000268:	fd9ff0ef          	jal	ra,10000240 <putchar>
1000026c:	00000013          	nop
10000270:	f00067b7          	lui	a5,0xf0006
10000274:	80478793          	addi	a5,a5,-2044 # f0005804 <_esram+0xb80052c8>
10000278:	0007a703          	lw	a4,0(a5)
1000027c:	00100793          	li	a5,1
10000280:	fef708e3          	beq	a4,a5,10000270 <putchar+0x30>
10000284:	f00067b7          	lui	a5,0xf0006
10000288:	80078793          	addi	a5,a5,-2048 # f0005800 <_esram+0xb80052c4>
1000028c:	fef44703          	lbu	a4,-17(s0)
10000290:	00e7a023          	sw	a4,0(a5)
10000294:	00000013          	nop
10000298:	01c12083          	lw	ra,28(sp)
1000029c:	01812403          	lw	s0,24(sp)
100002a0:	02010113          	addi	sp,sp,32
100002a4:	00008067          	ret

100002a8 <print>:
100002a8:	fe010113          	addi	sp,sp,-32
100002ac:	00112e23          	sw	ra,28(sp)
100002b0:	00812c23          	sw	s0,24(sp)
100002b4:	02010413          	addi	s0,sp,32
100002b8:	fea42623          	sw	a0,-20(s0)
100002bc:	01c0006f          	j	100002d8 <print+0x30>
100002c0:	fec42783          	lw	a5,-20(s0)
100002c4:	00178713          	addi	a4,a5,1
100002c8:	fee42623          	sw	a4,-20(s0)
100002cc:	0007c783          	lbu	a5,0(a5)
100002d0:	00078513          	mv	a0,a5
100002d4:	f6dff0ef          	jal	ra,10000240 <putchar>
100002d8:	fec42783          	lw	a5,-20(s0)
100002dc:	0007c783          	lbu	a5,0(a5)
100002e0:	fe0790e3          	bnez	a5,100002c0 <print+0x18>
100002e4:	00000013          	nop
100002e8:	00000013          	nop
100002ec:	01c12083          	lw	ra,28(sp)
100002f0:	01812403          	lw	s0,24(sp)
100002f4:	02010113          	addi	sp,sp,32
100002f8:	00008067          	ret

100002fc <main>:
100002fc:	fe010113          	addi	sp,sp,-32
10000300:	00112e23          	sw	ra,28(sp)
10000304:	00812c23          	sw	s0,24(sp)
10000308:	02010413          	addi	s0,sp,32
1000030c:	260007b7          	lui	a5,0x26000
10000310:	0a078793          	addi	a5,a5,160 # 260000a0 <_esram_rom+0x15ffea58>
10000314:	00002737          	lui	a4,0x2
10000318:	80970713          	addi	a4,a4,-2039 # 1809 <_fstack+0x1209>
1000031c:	00e7a023          	sw	a4,0(a5)
10000320:	260007b7          	lui	a5,0x26000
10000324:	09c78793          	addi	a5,a5,156 # 2600009c <_esram_rom+0x15ffea54>
10000328:	00002737          	lui	a4,0x2
1000032c:	80970713          	addi	a4,a4,-2039 # 1809 <_fstack+0x1209>
10000330:	00e7a023          	sw	a4,0(a5)
10000334:	260007b7          	lui	a5,0x26000
10000338:	09878793          	addi	a5,a5,152 # 26000098 <_esram_rom+0x15ffea50>
1000033c:	00002737          	lui	a4,0x2
10000340:	80970713          	addi	a4,a4,-2039 # 1809 <_fstack+0x1209>
10000344:	00e7a023          	sw	a4,0(a5)
10000348:	260007b7          	lui	a5,0x26000
1000034c:	09478793          	addi	a5,a5,148 # 26000094 <_esram_rom+0x15ffea4c>
10000350:	00002737          	lui	a4,0x2
10000354:	80970713          	addi	a4,a4,-2039 # 1809 <_fstack+0x1209>
10000358:	00e7a023          	sw	a4,0(a5)
1000035c:	260007b7          	lui	a5,0x26000
10000360:	09078793          	addi	a5,a5,144 # 26000090 <_esram_rom+0x15ffea48>
10000364:	00002737          	lui	a4,0x2
10000368:	80970713          	addi	a4,a4,-2039 # 1809 <_fstack+0x1209>
1000036c:	00e7a023          	sw	a4,0(a5)
10000370:	260007b7          	lui	a5,0x26000
10000374:	08c78793          	addi	a5,a5,140 # 2600008c <_esram_rom+0x15ffea44>
10000378:	00002737          	lui	a4,0x2
1000037c:	80970713          	addi	a4,a4,-2039 # 1809 <_fstack+0x1209>
10000380:	00e7a023          	sw	a4,0(a5)
10000384:	260007b7          	lui	a5,0x26000
10000388:	08878793          	addi	a5,a5,136 # 26000088 <_esram_rom+0x15ffea40>
1000038c:	00002737          	lui	a4,0x2
10000390:	80970713          	addi	a4,a4,-2039 # 1809 <_fstack+0x1209>
10000394:	00e7a023          	sw	a4,0(a5)
10000398:	260007b7          	lui	a5,0x26000
1000039c:	08478793          	addi	a5,a5,132 # 26000084 <_esram_rom+0x15ffea3c>
100003a0:	00002737          	lui	a4,0x2
100003a4:	80970713          	addi	a4,a4,-2039 # 1809 <_fstack+0x1209>
100003a8:	00e7a023          	sw	a4,0(a5)
100003ac:	260007b7          	lui	a5,0x26000
100003b0:	08078793          	addi	a5,a5,128 # 26000080 <_esram_rom+0x15ffea38>
100003b4:	00002737          	lui	a4,0x2
100003b8:	80970713          	addi	a4,a4,-2039 # 1809 <_fstack+0x1209>
100003bc:	00e7a023          	sw	a4,0(a5)
100003c0:	260007b7          	lui	a5,0x26000
100003c4:	07c78793          	addi	a5,a5,124 # 2600007c <_esram_rom+0x15ffea34>
100003c8:	00002737          	lui	a4,0x2
100003cc:	80970713          	addi	a4,a4,-2039 # 1809 <_fstack+0x1209>
100003d0:	00e7a023          	sw	a4,0(a5)
100003d4:	260007b7          	lui	a5,0x26000
100003d8:	07878793          	addi	a5,a5,120 # 26000078 <_esram_rom+0x15ffea30>
100003dc:	00002737          	lui	a4,0x2
100003e0:	80970713          	addi	a4,a4,-2039 # 1809 <_fstack+0x1209>
100003e4:	00e7a023          	sw	a4,0(a5)
100003e8:	260007b7          	lui	a5,0x26000
100003ec:	07478793          	addi	a5,a5,116 # 26000074 <_esram_rom+0x15ffea2c>
100003f0:	00002737          	lui	a4,0x2
100003f4:	80970713          	addi	a4,a4,-2039 # 1809 <_fstack+0x1209>
100003f8:	00e7a023          	sw	a4,0(a5)
100003fc:	260007b7          	lui	a5,0x26000
10000400:	07078793          	addi	a5,a5,112 # 26000070 <_esram_rom+0x15ffea28>
10000404:	00002737          	lui	a4,0x2
10000408:	80970713          	addi	a4,a4,-2039 # 1809 <_fstack+0x1209>
1000040c:	00e7a023          	sw	a4,0(a5)
10000410:	260007b7          	lui	a5,0x26000
10000414:	06c78793          	addi	a5,a5,108 # 2600006c <_esram_rom+0x15ffea24>
10000418:	00002737          	lui	a4,0x2
1000041c:	80970713          	addi	a4,a4,-2039 # 1809 <_fstack+0x1209>
10000420:	00e7a023          	sw	a4,0(a5)
10000424:	260007b7          	lui	a5,0x26000
10000428:	06878793          	addi	a5,a5,104 # 26000068 <_esram_rom+0x15ffea20>
1000042c:	00002737          	lui	a4,0x2
10000430:	80970713          	addi	a4,a4,-2039 # 1809 <_fstack+0x1209>
10000434:	00e7a023          	sw	a4,0(a5)
10000438:	260007b7          	lui	a5,0x26000
1000043c:	06478793          	addi	a5,a5,100 # 26000064 <_esram_rom+0x15ffea1c>
10000440:	00002737          	lui	a4,0x2
10000444:	80970713          	addi	a4,a4,-2039 # 1809 <_fstack+0x1209>
10000448:	00e7a023          	sw	a4,0(a5)
1000044c:	260007b7          	lui	a5,0x26000
10000450:	06078793          	addi	a5,a5,96 # 26000060 <_esram_rom+0x15ffea18>
10000454:	00002737          	lui	a4,0x2
10000458:	80870713          	addi	a4,a4,-2040 # 1808 <_fstack+0x1208>
1000045c:	00e7a023          	sw	a4,0(a5)
10000460:	260007b7          	lui	a5,0x26000
10000464:	05c78793          	addi	a5,a5,92 # 2600005c <_esram_rom+0x15ffea14>
10000468:	00002737          	lui	a4,0x2
1000046c:	80870713          	addi	a4,a4,-2040 # 1808 <_fstack+0x1208>
10000470:	00e7a023          	sw	a4,0(a5)
10000474:	260007b7          	lui	a5,0x26000
10000478:	05878793          	addi	a5,a5,88 # 26000058 <_esram_rom+0x15ffea10>
1000047c:	00002737          	lui	a4,0x2
10000480:	80870713          	addi	a4,a4,-2040 # 1808 <_fstack+0x1208>
10000484:	00e7a023          	sw	a4,0(a5)
10000488:	260007b7          	lui	a5,0x26000
1000048c:	05478793          	addi	a5,a5,84 # 26000054 <_esram_rom+0x15ffea0c>
10000490:	00002737          	lui	a4,0x2
10000494:	80870713          	addi	a4,a4,-2040 # 1808 <_fstack+0x1208>
10000498:	00e7a023          	sw	a4,0(a5)
1000049c:	260007b7          	lui	a5,0x26000
100004a0:	05078793          	addi	a5,a5,80 # 26000050 <_esram_rom+0x15ffea08>
100004a4:	00002737          	lui	a4,0x2
100004a8:	80870713          	addi	a4,a4,-2040 # 1808 <_fstack+0x1208>
100004ac:	00e7a023          	sw	a4,0(a5)
100004b0:	260007b7          	lui	a5,0x26000
100004b4:	04c78793          	addi	a5,a5,76 # 2600004c <_esram_rom+0x15ffea04>
100004b8:	00002737          	lui	a4,0x2
100004bc:	80870713          	addi	a4,a4,-2040 # 1808 <_fstack+0x1208>
100004c0:	00e7a023          	sw	a4,0(a5)
100004c4:	260007b7          	lui	a5,0x26000
100004c8:	04878793          	addi	a5,a5,72 # 26000048 <_esram_rom+0x15ffea00>
100004cc:	00002737          	lui	a4,0x2
100004d0:	80870713          	addi	a4,a4,-2040 # 1808 <_fstack+0x1208>
100004d4:	00e7a023          	sw	a4,0(a5)
100004d8:	260007b7          	lui	a5,0x26000
100004dc:	04478793          	addi	a5,a5,68 # 26000044 <_esram_rom+0x15ffe9fc>
100004e0:	00002737          	lui	a4,0x2
100004e4:	80870713          	addi	a4,a4,-2040 # 1808 <_fstack+0x1208>
100004e8:	00e7a023          	sw	a4,0(a5)
100004ec:	260007b7          	lui	a5,0x26000
100004f0:	04078793          	addi	a5,a5,64 # 26000040 <_esram_rom+0x15ffe9f8>
100004f4:	00002737          	lui	a4,0x2
100004f8:	80870713          	addi	a4,a4,-2040 # 1808 <_fstack+0x1208>
100004fc:	00e7a023          	sw	a4,0(a5)
10000500:	260007b7          	lui	a5,0x26000
10000504:	03878793          	addi	a5,a5,56 # 26000038 <_esram_rom+0x15ffe9f0>
10000508:	00002737          	lui	a4,0x2
1000050c:	80870713          	addi	a4,a4,-2040 # 1808 <_fstack+0x1208>
10000510:	00e7a023          	sw	a4,0(a5)
10000514:	260007b7          	lui	a5,0x26000
10000518:	03478793          	addi	a5,a5,52 # 26000034 <_esram_rom+0x15ffe9ec>
1000051c:	00002737          	lui	a4,0x2
10000520:	80870713          	addi	a4,a4,-2040 # 1808 <_fstack+0x1208>
10000524:	00e7a023          	sw	a4,0(a5)
10000528:	260007b7          	lui	a5,0x26000
1000052c:	03078793          	addi	a5,a5,48 # 26000030 <_esram_rom+0x15ffe9e8>
10000530:	00002737          	lui	a4,0x2
10000534:	80870713          	addi	a4,a4,-2040 # 1808 <_fstack+0x1208>
10000538:	00e7a023          	sw	a4,0(a5)
1000053c:	260007b7          	lui	a5,0x26000
10000540:	02c78793          	addi	a5,a5,44 # 2600002c <_esram_rom+0x15ffe9e4>
10000544:	00002737          	lui	a4,0x2
10000548:	80870713          	addi	a4,a4,-2040 # 1808 <_fstack+0x1208>
1000054c:	00e7a023          	sw	a4,0(a5)
10000550:	260007b7          	lui	a5,0x26000
10000554:	02878793          	addi	a5,a5,40 # 26000028 <_esram_rom+0x15ffe9e0>
10000558:	00002737          	lui	a4,0x2
1000055c:	80870713          	addi	a4,a4,-2040 # 1808 <_fstack+0x1208>
10000560:	00e7a023          	sw	a4,0(a5)
10000564:	260007b7          	lui	a5,0x26000
10000568:	02478793          	addi	a5,a5,36 # 26000024 <_esram_rom+0x15ffe9dc>
1000056c:	00002737          	lui	a4,0x2
10000570:	80870713          	addi	a4,a4,-2040 # 1808 <_fstack+0x1208>
10000574:	00e7a023          	sw	a4,0(a5)
10000578:	260007b7          	lui	a5,0x26000
1000057c:	03c78793          	addi	a5,a5,60 # 2600003c <_esram_rom+0x15ffe9f4>
10000580:	00002737          	lui	a4,0x2
10000584:	80970713          	addi	a4,a4,-2039 # 1809 <_fstack+0x1209>
10000588:	00e7a023          	sw	a4,0(a5)
1000058c:	f00067b7          	lui	a5,0xf0006
10000590:	00100713          	li	a4,1
10000594:	00e7a023          	sw	a4,0(a5) # f0006000 <_esram+0xb8005ac4>
10000598:	260007b7          	lui	a5,0x26000
1000059c:	00100713          	li	a4,1
100005a0:	00e7a023          	sw	a4,0(a5) # 26000000 <_esram_rom+0x15ffe9b8>
100005a4:	00000013          	nop
100005a8:	260007b7          	lui	a5,0x26000
100005ac:	0007a703          	lw	a4,0(a5) # 26000000 <_esram_rom+0x15ffe9b8>
100005b0:	00100793          	li	a5,1
100005b4:	fef70ae3          	beq	a4,a5,100005a8 <main+0x2ac>
100005b8:	f00037b7          	lui	a5,0xf0003
100005bc:	00c78713          	addi	a4,a5,12 # f000300c <_esram+0xb8002ad0>
100005c0:	00000793          	li	a5,0
100005c4:	00f72023          	sw	a5,0(a4)
100005c8:	f0003737          	lui	a4,0xf0003
100005cc:	01c70713          	addi	a4,a4,28 # f000301c <_esram+0xb8002ae0>
100005d0:	00f72023          	sw	a5,0(a4)
100005d4:	f00037b7          	lui	a5,0xf0003
100005d8:	00878713          	addi	a4,a5,8 # f0003008 <_esram+0xb8002acc>
100005dc:	fff00793          	li	a5,-1
100005e0:	00f72023          	sw	a5,0(a4)
100005e4:	f0003737          	lui	a4,0xf0003
100005e8:	01870713          	addi	a4,a4,24 # f0003018 <_esram+0xb8002adc>
100005ec:	00f72023          	sw	a5,0(a4)
100005f0:	f00037b7          	lui	a5,0xf0003
100005f4:	00478713          	addi	a4,a5,4 # f0003004 <_esram+0xb8002ac8>
100005f8:	00000793          	li	a5,0
100005fc:	00f72023          	sw	a5,0(a4)
10000600:	f0003737          	lui	a4,0xf0003
10000604:	01470713          	addi	a4,a4,20 # f0003014 <_esram+0xb8002ad8>
10000608:	00f72023          	sw	a5,0(a4)
1000060c:	f0003737          	lui	a4,0xf0003
10000610:	00000793          	li	a5,0
10000614:	00f72023          	sw	a5,0(a4) # f0003000 <_esram+0xb8002ac4>
10000618:	f0003737          	lui	a4,0xf0003
1000061c:	01070713          	addi	a4,a4,16 # f0003010 <_esram+0xb8002ad4>
10000620:	00f72023          	sw	a5,0(a4)
10000624:	260007b7          	lui	a5,0x26000
10000628:	00c78793          	addi	a5,a5,12 # 2600000c <_esram_rom+0x15ffe9c4>
1000062c:	ab400737          	lui	a4,0xab400
10000630:	00e7a023          	sw	a4,0(a5)
10000634:	f00037b7          	lui	a5,0xf0003
10000638:	03878793          	addi	a5,a5,56 # f0003038 <_esram+0xb8002afc>
1000063c:	0007a023          	sw	zero,0(a5)
10000640:	f00037b7          	lui	a5,0xf0003
10000644:	00878713          	addi	a4,a5,8 # f0003008 <_esram+0xb8002acc>
10000648:	00000793          	li	a5,0
1000064c:	00f72023          	sw	a5,0(a4) # ab400000 <_esram+0x733ffac4>
10000650:	f0003737          	lui	a4,0xf0003
10000654:	01870713          	addi	a4,a4,24 # f0003018 <_esram+0xb8002adc>
10000658:	00f72023          	sw	a5,0(a4)
1000065c:	28000097          	auipc	ra,0x28000
10000660:	b20080e7          	jalr	-1248(ra) # 3800017c <fir>
10000664:	fea42623          	sw	a0,-20(s0)
10000668:	fec42783          	lw	a5,-20(s0)
1000066c:	0007a783          	lw	a5,0(a5)
10000670:	01079713          	slli	a4,a5,0x10
10000674:	260007b7          	lui	a5,0x26000
10000678:	00c78793          	addi	a5,a5,12 # 2600000c <_esram_rom+0x15ffe9c4>
1000067c:	00e7a023          	sw	a4,0(a5)
10000680:	fec42783          	lw	a5,-20(s0)
10000684:	00478793          	addi	a5,a5,4
10000688:	0007a783          	lw	a5,0(a5)
1000068c:	01079713          	slli	a4,a5,0x10
10000690:	260007b7          	lui	a5,0x26000
10000694:	00c78793          	addi	a5,a5,12 # 2600000c <_esram_rom+0x15ffe9c4>
10000698:	00e7a023          	sw	a4,0(a5)
1000069c:	fec42783          	lw	a5,-20(s0)
100006a0:	00878793          	addi	a5,a5,8
100006a4:	0007a783          	lw	a5,0(a5)
100006a8:	01079713          	slli	a4,a5,0x10
100006ac:	260007b7          	lui	a5,0x26000
100006b0:	00c78793          	addi	a5,a5,12 # 2600000c <_esram_rom+0x15ffe9c4>
100006b4:	00e7a023          	sw	a4,0(a5)
100006b8:	fec42783          	lw	a5,-20(s0)
100006bc:	00c78793          	addi	a5,a5,12
100006c0:	0007a783          	lw	a5,0(a5)
100006c4:	01079713          	slli	a4,a5,0x10
100006c8:	260007b7          	lui	a5,0x26000
100006cc:	00c78793          	addi	a5,a5,12 # 2600000c <_esram_rom+0x15ffe9c4>
100006d0:	00e7a023          	sw	a4,0(a5)
100006d4:	fec42783          	lw	a5,-20(s0)
100006d8:	01078793          	addi	a5,a5,16
100006dc:	0007a783          	lw	a5,0(a5)
100006e0:	01079713          	slli	a4,a5,0x10
100006e4:	260007b7          	lui	a5,0x26000
100006e8:	00c78793          	addi	a5,a5,12 # 2600000c <_esram_rom+0x15ffe9c4>
100006ec:	00e7a023          	sw	a4,0(a5)
100006f0:	fec42783          	lw	a5,-20(s0)
100006f4:	01478793          	addi	a5,a5,20
100006f8:	0007a783          	lw	a5,0(a5)
100006fc:	01079713          	slli	a4,a5,0x10
10000700:	260007b7          	lui	a5,0x26000
10000704:	00c78793          	addi	a5,a5,12 # 2600000c <_esram_rom+0x15ffe9c4>
10000708:	00e7a023          	sw	a4,0(a5)
1000070c:	fec42783          	lw	a5,-20(s0)
10000710:	01878793          	addi	a5,a5,24
10000714:	0007a783          	lw	a5,0(a5)
10000718:	01079713          	slli	a4,a5,0x10
1000071c:	260007b7          	lui	a5,0x26000
10000720:	00c78793          	addi	a5,a5,12 # 2600000c <_esram_rom+0x15ffe9c4>
10000724:	00e7a023          	sw	a4,0(a5)
10000728:	fec42783          	lw	a5,-20(s0)
1000072c:	01c78793          	addi	a5,a5,28
10000730:	0007a783          	lw	a5,0(a5)
10000734:	01079713          	slli	a4,a5,0x10
10000738:	260007b7          	lui	a5,0x26000
1000073c:	00c78793          	addi	a5,a5,12 # 2600000c <_esram_rom+0x15ffe9c4>
10000740:	00e7a023          	sw	a4,0(a5)
10000744:	fec42783          	lw	a5,-20(s0)
10000748:	02078793          	addi	a5,a5,32
1000074c:	0007a783          	lw	a5,0(a5)
10000750:	01079713          	slli	a4,a5,0x10
10000754:	260007b7          	lui	a5,0x26000
10000758:	00c78793          	addi	a5,a5,12 # 2600000c <_esram_rom+0x15ffe9c4>
1000075c:	00e7a023          	sw	a4,0(a5)
10000760:	fec42783          	lw	a5,-20(s0)
10000764:	02478793          	addi	a5,a5,36
10000768:	0007a783          	lw	a5,0(a5)
1000076c:	01079713          	slli	a4,a5,0x10
10000770:	260007b7          	lui	a5,0x26000
10000774:	00c78793          	addi	a5,a5,12 # 2600000c <_esram_rom+0x15ffe9c4>
10000778:	00e7a023          	sw	a4,0(a5)
1000077c:	fec42783          	lw	a5,-20(s0)
10000780:	02878793          	addi	a5,a5,40
10000784:	0007a783          	lw	a5,0(a5)
10000788:	01079713          	slli	a4,a5,0x10
1000078c:	260007b7          	lui	a5,0x26000
10000790:	00c78793          	addi	a5,a5,12 # 2600000c <_esram_rom+0x15ffe9c4>
10000794:	00e7a023          	sw	a4,0(a5)
10000798:	260007b7          	lui	a5,0x26000
1000079c:	00c78793          	addi	a5,a5,12 # 2600000c <_esram_rom+0x15ffe9c4>
100007a0:	ab510737          	lui	a4,0xab510
100007a4:	00e7a023          	sw	a4,0(a5)
100007a8:	260007b7          	lui	a5,0x26000
100007ac:	0a078793          	addi	a5,a5,160 # 260000a0 <_esram_rom+0x15ffea58>
100007b0:	00002737          	lui	a4,0x2
100007b4:	80970713          	addi	a4,a4,-2039 # 1809 <_fstack+0x1209>
100007b8:	00e7a023          	sw	a4,0(a5)
100007bc:	260007b7          	lui	a5,0x26000
100007c0:	09c78793          	addi	a5,a5,156 # 2600009c <_esram_rom+0x15ffea54>
100007c4:	00002737          	lui	a4,0x2
100007c8:	80970713          	addi	a4,a4,-2039 # 1809 <_fstack+0x1209>
100007cc:	00e7a023          	sw	a4,0(a5)
100007d0:	260007b7          	lui	a5,0x26000
100007d4:	09878793          	addi	a5,a5,152 # 26000098 <_esram_rom+0x15ffea50>
100007d8:	00002737          	lui	a4,0x2
100007dc:	80970713          	addi	a4,a4,-2039 # 1809 <_fstack+0x1209>
100007e0:	00e7a023          	sw	a4,0(a5)
100007e4:	260007b7          	lui	a5,0x26000
100007e8:	09478793          	addi	a5,a5,148 # 26000094 <_esram_rom+0x15ffea4c>
100007ec:	00002737          	lui	a4,0x2
100007f0:	80970713          	addi	a4,a4,-2039 # 1809 <_fstack+0x1209>
100007f4:	00e7a023          	sw	a4,0(a5)
100007f8:	260007b7          	lui	a5,0x26000
100007fc:	09078793          	addi	a5,a5,144 # 26000090 <_esram_rom+0x15ffea48>
10000800:	00002737          	lui	a4,0x2
10000804:	80970713          	addi	a4,a4,-2039 # 1809 <_fstack+0x1209>
10000808:	00e7a023          	sw	a4,0(a5)
1000080c:	260007b7          	lui	a5,0x26000
10000810:	08c78793          	addi	a5,a5,140 # 2600008c <_esram_rom+0x15ffea44>
10000814:	00002737          	lui	a4,0x2
10000818:	80970713          	addi	a4,a4,-2039 # 1809 <_fstack+0x1209>
1000081c:	00e7a023          	sw	a4,0(a5)
10000820:	260007b7          	lui	a5,0x26000
10000824:	08878793          	addi	a5,a5,136 # 26000088 <_esram_rom+0x15ffea40>
10000828:	00002737          	lui	a4,0x2
1000082c:	80970713          	addi	a4,a4,-2039 # 1809 <_fstack+0x1209>
10000830:	00e7a023          	sw	a4,0(a5)
10000834:	260007b7          	lui	a5,0x26000
10000838:	08478793          	addi	a5,a5,132 # 26000084 <_esram_rom+0x15ffea3c>
1000083c:	00002737          	lui	a4,0x2
10000840:	80970713          	addi	a4,a4,-2039 # 1809 <_fstack+0x1209>
10000844:	00e7a023          	sw	a4,0(a5)
10000848:	260007b7          	lui	a5,0x26000
1000084c:	08078793          	addi	a5,a5,128 # 26000080 <_esram_rom+0x15ffea38>
10000850:	00002737          	lui	a4,0x2
10000854:	80970713          	addi	a4,a4,-2039 # 1809 <_fstack+0x1209>
10000858:	00e7a023          	sw	a4,0(a5)
1000085c:	260007b7          	lui	a5,0x26000
10000860:	07c78793          	addi	a5,a5,124 # 2600007c <_esram_rom+0x15ffea34>
10000864:	00002737          	lui	a4,0x2
10000868:	80970713          	addi	a4,a4,-2039 # 1809 <_fstack+0x1209>
1000086c:	00e7a023          	sw	a4,0(a5)
10000870:	260007b7          	lui	a5,0x26000
10000874:	07878793          	addi	a5,a5,120 # 26000078 <_esram_rom+0x15ffea30>
10000878:	00002737          	lui	a4,0x2
1000087c:	80970713          	addi	a4,a4,-2039 # 1809 <_fstack+0x1209>
10000880:	00e7a023          	sw	a4,0(a5)
10000884:	260007b7          	lui	a5,0x26000
10000888:	07478793          	addi	a5,a5,116 # 26000074 <_esram_rom+0x15ffea2c>
1000088c:	00002737          	lui	a4,0x2
10000890:	80970713          	addi	a4,a4,-2039 # 1809 <_fstack+0x1209>
10000894:	00e7a023          	sw	a4,0(a5)
10000898:	260007b7          	lui	a5,0x26000
1000089c:	07078793          	addi	a5,a5,112 # 26000070 <_esram_rom+0x15ffea28>
100008a0:	00002737          	lui	a4,0x2
100008a4:	80970713          	addi	a4,a4,-2039 # 1809 <_fstack+0x1209>
100008a8:	00e7a023          	sw	a4,0(a5)
100008ac:	260007b7          	lui	a5,0x26000
100008b0:	06c78793          	addi	a5,a5,108 # 2600006c <_esram_rom+0x15ffea24>
100008b4:	00002737          	lui	a4,0x2
100008b8:	80970713          	addi	a4,a4,-2039 # 1809 <_fstack+0x1209>
100008bc:	00e7a023          	sw	a4,0(a5)
100008c0:	260007b7          	lui	a5,0x26000
100008c4:	06878793          	addi	a5,a5,104 # 26000068 <_esram_rom+0x15ffea20>
100008c8:	00002737          	lui	a4,0x2
100008cc:	80970713          	addi	a4,a4,-2039 # 1809 <_fstack+0x1209>
100008d0:	00e7a023          	sw	a4,0(a5)
100008d4:	260007b7          	lui	a5,0x26000
100008d8:	06478793          	addi	a5,a5,100 # 26000064 <_esram_rom+0x15ffea1c>
100008dc:	00002737          	lui	a4,0x2
100008e0:	80970713          	addi	a4,a4,-2039 # 1809 <_fstack+0x1209>
100008e4:	00e7a023          	sw	a4,0(a5)
100008e8:	260007b7          	lui	a5,0x26000
100008ec:	06078793          	addi	a5,a5,96 # 26000060 <_esram_rom+0x15ffea18>
100008f0:	00002737          	lui	a4,0x2
100008f4:	80870713          	addi	a4,a4,-2040 # 1808 <_fstack+0x1208>
100008f8:	00e7a023          	sw	a4,0(a5)
100008fc:	260007b7          	lui	a5,0x26000
10000900:	05c78793          	addi	a5,a5,92 # 2600005c <_esram_rom+0x15ffea14>
10000904:	00002737          	lui	a4,0x2
10000908:	80870713          	addi	a4,a4,-2040 # 1808 <_fstack+0x1208>
1000090c:	00e7a023          	sw	a4,0(a5)
10000910:	260007b7          	lui	a5,0x26000
10000914:	05878793          	addi	a5,a5,88 # 26000058 <_esram_rom+0x15ffea10>
10000918:	00002737          	lui	a4,0x2
1000091c:	80870713          	addi	a4,a4,-2040 # 1808 <_fstack+0x1208>
10000920:	00e7a023          	sw	a4,0(a5)
10000924:	260007b7          	lui	a5,0x26000
10000928:	05478793          	addi	a5,a5,84 # 26000054 <_esram_rom+0x15ffea0c>
1000092c:	00002737          	lui	a4,0x2
10000930:	80870713          	addi	a4,a4,-2040 # 1808 <_fstack+0x1208>
10000934:	00e7a023          	sw	a4,0(a5)
10000938:	260007b7          	lui	a5,0x26000
1000093c:	05078793          	addi	a5,a5,80 # 26000050 <_esram_rom+0x15ffea08>
10000940:	00002737          	lui	a4,0x2
10000944:	80870713          	addi	a4,a4,-2040 # 1808 <_fstack+0x1208>
10000948:	00e7a023          	sw	a4,0(a5)
1000094c:	260007b7          	lui	a5,0x26000
10000950:	04c78793          	addi	a5,a5,76 # 2600004c <_esram_rom+0x15ffea04>
10000954:	00002737          	lui	a4,0x2
10000958:	80870713          	addi	a4,a4,-2040 # 1808 <_fstack+0x1208>
1000095c:	00e7a023          	sw	a4,0(a5)
10000960:	260007b7          	lui	a5,0x26000
10000964:	04878793          	addi	a5,a5,72 # 26000048 <_esram_rom+0x15ffea00>
10000968:	00002737          	lui	a4,0x2
1000096c:	80870713          	addi	a4,a4,-2040 # 1808 <_fstack+0x1208>
10000970:	00e7a023          	sw	a4,0(a5)
10000974:	260007b7          	lui	a5,0x26000
10000978:	04478793          	addi	a5,a5,68 # 26000044 <_esram_rom+0x15ffe9fc>
1000097c:	00002737          	lui	a4,0x2
10000980:	80870713          	addi	a4,a4,-2040 # 1808 <_fstack+0x1208>
10000984:	00e7a023          	sw	a4,0(a5)
10000988:	260007b7          	lui	a5,0x26000
1000098c:	04078793          	addi	a5,a5,64 # 26000040 <_esram_rom+0x15ffe9f8>
10000990:	00002737          	lui	a4,0x2
10000994:	80870713          	addi	a4,a4,-2040 # 1808 <_fstack+0x1208>
10000998:	00e7a023          	sw	a4,0(a5)
1000099c:	260007b7          	lui	a5,0x26000
100009a0:	03878793          	addi	a5,a5,56 # 26000038 <_esram_rom+0x15ffe9f0>
100009a4:	00002737          	lui	a4,0x2
100009a8:	80870713          	addi	a4,a4,-2040 # 1808 <_fstack+0x1208>
100009ac:	00e7a023          	sw	a4,0(a5)
100009b0:	260007b7          	lui	a5,0x26000
100009b4:	03478793          	addi	a5,a5,52 # 26000034 <_esram_rom+0x15ffe9ec>
100009b8:	00002737          	lui	a4,0x2
100009bc:	80870713          	addi	a4,a4,-2040 # 1808 <_fstack+0x1208>
100009c0:	00e7a023          	sw	a4,0(a5)
100009c4:	260007b7          	lui	a5,0x26000
100009c8:	03078793          	addi	a5,a5,48 # 26000030 <_esram_rom+0x15ffe9e8>
100009cc:	00002737          	lui	a4,0x2
100009d0:	80870713          	addi	a4,a4,-2040 # 1808 <_fstack+0x1208>
100009d4:	00e7a023          	sw	a4,0(a5)
100009d8:	260007b7          	lui	a5,0x26000
100009dc:	02c78793          	addi	a5,a5,44 # 2600002c <_esram_rom+0x15ffe9e4>
100009e0:	00002737          	lui	a4,0x2
100009e4:	80870713          	addi	a4,a4,-2040 # 1808 <_fstack+0x1208>
100009e8:	00e7a023          	sw	a4,0(a5)
100009ec:	260007b7          	lui	a5,0x26000
100009f0:	02878793          	addi	a5,a5,40 # 26000028 <_esram_rom+0x15ffe9e0>
100009f4:	00002737          	lui	a4,0x2
100009f8:	80870713          	addi	a4,a4,-2040 # 1808 <_fstack+0x1208>
100009fc:	00e7a023          	sw	a4,0(a5)
10000a00:	260007b7          	lui	a5,0x26000
10000a04:	02478793          	addi	a5,a5,36 # 26000024 <_esram_rom+0x15ffe9dc>
10000a08:	00002737          	lui	a4,0x2
10000a0c:	80870713          	addi	a4,a4,-2040 # 1808 <_fstack+0x1208>
10000a10:	00e7a023          	sw	a4,0(a5)
10000a14:	260007b7          	lui	a5,0x26000
10000a18:	03c78793          	addi	a5,a5,60 # 2600003c <_esram_rom+0x15ffe9f4>
10000a1c:	00002737          	lui	a4,0x2
10000a20:	80970713          	addi	a4,a4,-2039 # 1809 <_fstack+0x1209>
10000a24:	00e7a023          	sw	a4,0(a5)
10000a28:	f00067b7          	lui	a5,0xf0006
10000a2c:	00100713          	li	a4,1
10000a30:	00e7a023          	sw	a4,0(a5) # f0006000 <_esram+0xb8005ac4>
10000a34:	260007b7          	lui	a5,0x26000
10000a38:	00100713          	li	a4,1
10000a3c:	00e7a023          	sw	a4,0(a5) # 26000000 <_esram_rom+0x15ffe9b8>
10000a40:	00000013          	nop
10000a44:	260007b7          	lui	a5,0x26000
10000a48:	0007a703          	lw	a4,0(a5) # 26000000 <_esram_rom+0x15ffe9b8>
10000a4c:	00100793          	li	a5,1
10000a50:	fef70ae3          	beq	a4,a5,10000a44 <main+0x748>
10000a54:	f00037b7          	lui	a5,0xf0003
10000a58:	00c78713          	addi	a4,a5,12 # f000300c <_esram+0xb8002ad0>
10000a5c:	00000793          	li	a5,0
10000a60:	00f72023          	sw	a5,0(a4)
10000a64:	f0003737          	lui	a4,0xf0003
10000a68:	01c70713          	addi	a4,a4,28 # f000301c <_esram+0xb8002ae0>
10000a6c:	00f72023          	sw	a5,0(a4)
10000a70:	f00037b7          	lui	a5,0xf0003
10000a74:	00878713          	addi	a4,a5,8 # f0003008 <_esram+0xb8002acc>
10000a78:	fff00793          	li	a5,-1
10000a7c:	00f72023          	sw	a5,0(a4)
10000a80:	f0003737          	lui	a4,0xf0003
10000a84:	01870713          	addi	a4,a4,24 # f0003018 <_esram+0xb8002adc>
10000a88:	00f72023          	sw	a5,0(a4)
10000a8c:	f00037b7          	lui	a5,0xf0003
10000a90:	00478713          	addi	a4,a5,4 # f0003004 <_esram+0xb8002ac8>
10000a94:	00000793          	li	a5,0
10000a98:	00f72023          	sw	a5,0(a4)
10000a9c:	f0003737          	lui	a4,0xf0003
10000aa0:	01470713          	addi	a4,a4,20 # f0003014 <_esram+0xb8002ad8>
10000aa4:	00f72023          	sw	a5,0(a4)
10000aa8:	f0003737          	lui	a4,0xf0003
10000aac:	00000793          	li	a5,0
10000ab0:	00f72023          	sw	a5,0(a4) # f0003000 <_esram+0xb8002ac4>
10000ab4:	f0003737          	lui	a4,0xf0003
10000ab8:	01070713          	addi	a4,a4,16 # f0003010 <_esram+0xb8002ad4>
10000abc:	00f72023          	sw	a5,0(a4)
10000ac0:	f00037b7          	lui	a5,0xf0003
10000ac4:	03878793          	addi	a5,a5,56 # f0003038 <_esram+0xb8002afc>
10000ac8:	0007a023          	sw	zero,0(a5)
10000acc:	f00037b7          	lui	a5,0xf0003
10000ad0:	00878713          	addi	a4,a5,8 # f0003008 <_esram+0xb8002acc>
10000ad4:	00000793          	li	a5,0
10000ad8:	00f72023          	sw	a5,0(a4)
10000adc:	f0003737          	lui	a4,0xf0003
10000ae0:	01870713          	addi	a4,a4,24 # f0003018 <_esram+0xb8002adc>
10000ae4:	00f72023          	sw	a5,0(a4)
10000ae8:	27fff097          	auipc	ra,0x27fff
10000aec:	714080e7          	jalr	1812(ra) # 380001fc <matmul>
10000af0:	fea42423          	sw	a0,-24(s0)
10000af4:	fe842783          	lw	a5,-24(s0)
10000af8:	0007a783          	lw	a5,0(a5)
10000afc:	01079713          	slli	a4,a5,0x10
10000b00:	260007b7          	lui	a5,0x26000
10000b04:	00c78793          	addi	a5,a5,12 # 2600000c <_esram_rom+0x15ffe9c4>
10000b08:	00e7a023          	sw	a4,0(a5)
10000b0c:	fe842783          	lw	a5,-24(s0)
10000b10:	00478793          	addi	a5,a5,4
10000b14:	0007a783          	lw	a5,0(a5)
10000b18:	01079713          	slli	a4,a5,0x10
10000b1c:	260007b7          	lui	a5,0x26000
10000b20:	00c78793          	addi	a5,a5,12 # 2600000c <_esram_rom+0x15ffe9c4>
10000b24:	00e7a023          	sw	a4,0(a5)
10000b28:	fe842783          	lw	a5,-24(s0)
10000b2c:	00878793          	addi	a5,a5,8
10000b30:	0007a783          	lw	a5,0(a5)
10000b34:	01079713          	slli	a4,a5,0x10
10000b38:	260007b7          	lui	a5,0x26000
10000b3c:	00c78793          	addi	a5,a5,12 # 2600000c <_esram_rom+0x15ffe9c4>
10000b40:	00e7a023          	sw	a4,0(a5)
10000b44:	fe842783          	lw	a5,-24(s0)
10000b48:	00c78793          	addi	a5,a5,12
10000b4c:	0007a783          	lw	a5,0(a5)
10000b50:	01079713          	slli	a4,a5,0x10
10000b54:	260007b7          	lui	a5,0x26000
10000b58:	00c78793          	addi	a5,a5,12 # 2600000c <_esram_rom+0x15ffe9c4>
10000b5c:	00e7a023          	sw	a4,0(a5)
10000b60:	fe842783          	lw	a5,-24(s0)
10000b64:	02478793          	addi	a5,a5,36
10000b68:	0007a783          	lw	a5,0(a5)
10000b6c:	01079713          	slli	a4,a5,0x10
10000b70:	260007b7          	lui	a5,0x26000
10000b74:	00c78793          	addi	a5,a5,12 # 2600000c <_esram_rom+0x15ffe9c4>
10000b78:	00e7a023          	sw	a4,0(a5)
10000b7c:	260007b7          	lui	a5,0x26000
10000b80:	0a078793          	addi	a5,a5,160 # 260000a0 <_esram_rom+0x15ffea58>
10000b84:	00002737          	lui	a4,0x2
10000b88:	80970713          	addi	a4,a4,-2039 # 1809 <_fstack+0x1209>
10000b8c:	00e7a023          	sw	a4,0(a5)
10000b90:	260007b7          	lui	a5,0x26000
10000b94:	09c78793          	addi	a5,a5,156 # 2600009c <_esram_rom+0x15ffea54>
10000b98:	00002737          	lui	a4,0x2
10000b9c:	80970713          	addi	a4,a4,-2039 # 1809 <_fstack+0x1209>
10000ba0:	00e7a023          	sw	a4,0(a5)
10000ba4:	260007b7          	lui	a5,0x26000
10000ba8:	09878793          	addi	a5,a5,152 # 26000098 <_esram_rom+0x15ffea50>
10000bac:	00002737          	lui	a4,0x2
10000bb0:	80970713          	addi	a4,a4,-2039 # 1809 <_fstack+0x1209>
10000bb4:	00e7a023          	sw	a4,0(a5)
10000bb8:	260007b7          	lui	a5,0x26000
10000bbc:	09478793          	addi	a5,a5,148 # 26000094 <_esram_rom+0x15ffea4c>
10000bc0:	00002737          	lui	a4,0x2
10000bc4:	80970713          	addi	a4,a4,-2039 # 1809 <_fstack+0x1209>
10000bc8:	00e7a023          	sw	a4,0(a5)
10000bcc:	260007b7          	lui	a5,0x26000
10000bd0:	09078793          	addi	a5,a5,144 # 26000090 <_esram_rom+0x15ffea48>
10000bd4:	00002737          	lui	a4,0x2
10000bd8:	80970713          	addi	a4,a4,-2039 # 1809 <_fstack+0x1209>
10000bdc:	00e7a023          	sw	a4,0(a5)
10000be0:	260007b7          	lui	a5,0x26000
10000be4:	08c78793          	addi	a5,a5,140 # 2600008c <_esram_rom+0x15ffea44>
10000be8:	00002737          	lui	a4,0x2
10000bec:	80970713          	addi	a4,a4,-2039 # 1809 <_fstack+0x1209>
10000bf0:	00e7a023          	sw	a4,0(a5)
10000bf4:	260007b7          	lui	a5,0x26000
10000bf8:	08878793          	addi	a5,a5,136 # 26000088 <_esram_rom+0x15ffea40>
10000bfc:	00002737          	lui	a4,0x2
10000c00:	80970713          	addi	a4,a4,-2039 # 1809 <_fstack+0x1209>
10000c04:	00e7a023          	sw	a4,0(a5)
10000c08:	260007b7          	lui	a5,0x26000
10000c0c:	08478793          	addi	a5,a5,132 # 26000084 <_esram_rom+0x15ffea3c>
10000c10:	00002737          	lui	a4,0x2
10000c14:	80970713          	addi	a4,a4,-2039 # 1809 <_fstack+0x1209>
10000c18:	00e7a023          	sw	a4,0(a5)
10000c1c:	260007b7          	lui	a5,0x26000
10000c20:	08078793          	addi	a5,a5,128 # 26000080 <_esram_rom+0x15ffea38>
10000c24:	00002737          	lui	a4,0x2
10000c28:	80970713          	addi	a4,a4,-2039 # 1809 <_fstack+0x1209>
10000c2c:	00e7a023          	sw	a4,0(a5)
10000c30:	260007b7          	lui	a5,0x26000
10000c34:	07c78793          	addi	a5,a5,124 # 2600007c <_esram_rom+0x15ffea34>
10000c38:	00002737          	lui	a4,0x2
10000c3c:	80970713          	addi	a4,a4,-2039 # 1809 <_fstack+0x1209>
10000c40:	00e7a023          	sw	a4,0(a5)
10000c44:	260007b7          	lui	a5,0x26000
10000c48:	07878793          	addi	a5,a5,120 # 26000078 <_esram_rom+0x15ffea30>
10000c4c:	00002737          	lui	a4,0x2
10000c50:	80970713          	addi	a4,a4,-2039 # 1809 <_fstack+0x1209>
10000c54:	00e7a023          	sw	a4,0(a5)
10000c58:	260007b7          	lui	a5,0x26000
10000c5c:	07478793          	addi	a5,a5,116 # 26000074 <_esram_rom+0x15ffea2c>
10000c60:	00002737          	lui	a4,0x2
10000c64:	80970713          	addi	a4,a4,-2039 # 1809 <_fstack+0x1209>
10000c68:	00e7a023          	sw	a4,0(a5)
10000c6c:	260007b7          	lui	a5,0x26000
10000c70:	07078793          	addi	a5,a5,112 # 26000070 <_esram_rom+0x15ffea28>
10000c74:	00002737          	lui	a4,0x2
10000c78:	80970713          	addi	a4,a4,-2039 # 1809 <_fstack+0x1209>
10000c7c:	00e7a023          	sw	a4,0(a5)
10000c80:	260007b7          	lui	a5,0x26000
10000c84:	06c78793          	addi	a5,a5,108 # 2600006c <_esram_rom+0x15ffea24>
10000c88:	00002737          	lui	a4,0x2
10000c8c:	80970713          	addi	a4,a4,-2039 # 1809 <_fstack+0x1209>
10000c90:	00e7a023          	sw	a4,0(a5)
10000c94:	260007b7          	lui	a5,0x26000
10000c98:	06878793          	addi	a5,a5,104 # 26000068 <_esram_rom+0x15ffea20>
10000c9c:	00002737          	lui	a4,0x2
10000ca0:	80970713          	addi	a4,a4,-2039 # 1809 <_fstack+0x1209>
10000ca4:	00e7a023          	sw	a4,0(a5)
10000ca8:	260007b7          	lui	a5,0x26000
10000cac:	06478793          	addi	a5,a5,100 # 26000064 <_esram_rom+0x15ffea1c>
10000cb0:	00002737          	lui	a4,0x2
10000cb4:	80970713          	addi	a4,a4,-2039 # 1809 <_fstack+0x1209>
10000cb8:	00e7a023          	sw	a4,0(a5)
10000cbc:	260007b7          	lui	a5,0x26000
10000cc0:	06078793          	addi	a5,a5,96 # 26000060 <_esram_rom+0x15ffea18>
10000cc4:	00002737          	lui	a4,0x2
10000cc8:	80870713          	addi	a4,a4,-2040 # 1808 <_fstack+0x1208>
10000ccc:	00e7a023          	sw	a4,0(a5)
10000cd0:	260007b7          	lui	a5,0x26000
10000cd4:	05c78793          	addi	a5,a5,92 # 2600005c <_esram_rom+0x15ffea14>
10000cd8:	00002737          	lui	a4,0x2
10000cdc:	80870713          	addi	a4,a4,-2040 # 1808 <_fstack+0x1208>
10000ce0:	00e7a023          	sw	a4,0(a5)
10000ce4:	260007b7          	lui	a5,0x26000
10000ce8:	05878793          	addi	a5,a5,88 # 26000058 <_esram_rom+0x15ffea10>
10000cec:	00002737          	lui	a4,0x2
10000cf0:	80870713          	addi	a4,a4,-2040 # 1808 <_fstack+0x1208>
10000cf4:	00e7a023          	sw	a4,0(a5)
10000cf8:	260007b7          	lui	a5,0x26000
10000cfc:	05478793          	addi	a5,a5,84 # 26000054 <_esram_rom+0x15ffea0c>
10000d00:	00002737          	lui	a4,0x2
10000d04:	80870713          	addi	a4,a4,-2040 # 1808 <_fstack+0x1208>
10000d08:	00e7a023          	sw	a4,0(a5)
10000d0c:	260007b7          	lui	a5,0x26000
10000d10:	05078793          	addi	a5,a5,80 # 26000050 <_esram_rom+0x15ffea08>
10000d14:	00002737          	lui	a4,0x2
10000d18:	80870713          	addi	a4,a4,-2040 # 1808 <_fstack+0x1208>
10000d1c:	00e7a023          	sw	a4,0(a5)
10000d20:	260007b7          	lui	a5,0x26000
10000d24:	04c78793          	addi	a5,a5,76 # 2600004c <_esram_rom+0x15ffea04>
10000d28:	00002737          	lui	a4,0x2
10000d2c:	80870713          	addi	a4,a4,-2040 # 1808 <_fstack+0x1208>
10000d30:	00e7a023          	sw	a4,0(a5)
10000d34:	260007b7          	lui	a5,0x26000
10000d38:	04878793          	addi	a5,a5,72 # 26000048 <_esram_rom+0x15ffea00>
10000d3c:	00002737          	lui	a4,0x2
10000d40:	80870713          	addi	a4,a4,-2040 # 1808 <_fstack+0x1208>
10000d44:	00e7a023          	sw	a4,0(a5)
10000d48:	260007b7          	lui	a5,0x26000
10000d4c:	04478793          	addi	a5,a5,68 # 26000044 <_esram_rom+0x15ffe9fc>
10000d50:	00002737          	lui	a4,0x2
10000d54:	80870713          	addi	a4,a4,-2040 # 1808 <_fstack+0x1208>
10000d58:	00e7a023          	sw	a4,0(a5)
10000d5c:	260007b7          	lui	a5,0x26000
10000d60:	04078793          	addi	a5,a5,64 # 26000040 <_esram_rom+0x15ffe9f8>
10000d64:	00002737          	lui	a4,0x2
10000d68:	80870713          	addi	a4,a4,-2040 # 1808 <_fstack+0x1208>
10000d6c:	00e7a023          	sw	a4,0(a5)
10000d70:	260007b7          	lui	a5,0x26000
10000d74:	03878793          	addi	a5,a5,56 # 26000038 <_esram_rom+0x15ffe9f0>
10000d78:	00002737          	lui	a4,0x2
10000d7c:	80870713          	addi	a4,a4,-2040 # 1808 <_fstack+0x1208>
10000d80:	00e7a023          	sw	a4,0(a5)
10000d84:	260007b7          	lui	a5,0x26000
10000d88:	03478793          	addi	a5,a5,52 # 26000034 <_esram_rom+0x15ffe9ec>
10000d8c:	00002737          	lui	a4,0x2
10000d90:	80870713          	addi	a4,a4,-2040 # 1808 <_fstack+0x1208>
10000d94:	00e7a023          	sw	a4,0(a5)
10000d98:	260007b7          	lui	a5,0x26000
10000d9c:	03078793          	addi	a5,a5,48 # 26000030 <_esram_rom+0x15ffe9e8>
10000da0:	00002737          	lui	a4,0x2
10000da4:	80870713          	addi	a4,a4,-2040 # 1808 <_fstack+0x1208>
10000da8:	00e7a023          	sw	a4,0(a5)
10000dac:	260007b7          	lui	a5,0x26000
10000db0:	02c78793          	addi	a5,a5,44 # 2600002c <_esram_rom+0x15ffe9e4>
10000db4:	00002737          	lui	a4,0x2
10000db8:	80870713          	addi	a4,a4,-2040 # 1808 <_fstack+0x1208>
10000dbc:	00e7a023          	sw	a4,0(a5)
10000dc0:	260007b7          	lui	a5,0x26000
10000dc4:	02878793          	addi	a5,a5,40 # 26000028 <_esram_rom+0x15ffe9e0>
10000dc8:	00002737          	lui	a4,0x2
10000dcc:	80870713          	addi	a4,a4,-2040 # 1808 <_fstack+0x1208>
10000dd0:	00e7a023          	sw	a4,0(a5)
10000dd4:	260007b7          	lui	a5,0x26000
10000dd8:	02478793          	addi	a5,a5,36 # 26000024 <_esram_rom+0x15ffe9dc>
10000ddc:	00002737          	lui	a4,0x2
10000de0:	80870713          	addi	a4,a4,-2040 # 1808 <_fstack+0x1208>
10000de4:	00e7a023          	sw	a4,0(a5)
10000de8:	260007b7          	lui	a5,0x26000
10000dec:	03c78793          	addi	a5,a5,60 # 2600003c <_esram_rom+0x15ffe9f4>
10000df0:	00002737          	lui	a4,0x2
10000df4:	80970713          	addi	a4,a4,-2039 # 1809 <_fstack+0x1209>
10000df8:	00e7a023          	sw	a4,0(a5)
10000dfc:	f00067b7          	lui	a5,0xf0006
10000e00:	00100713          	li	a4,1
10000e04:	00e7a023          	sw	a4,0(a5) # f0006000 <_esram+0xb8005ac4>
10000e08:	260007b7          	lui	a5,0x26000
10000e0c:	00100713          	li	a4,1
10000e10:	00e7a023          	sw	a4,0(a5) # 26000000 <_esram_rom+0x15ffe9b8>
10000e14:	00000013          	nop
10000e18:	260007b7          	lui	a5,0x26000
10000e1c:	0007a703          	lw	a4,0(a5) # 26000000 <_esram_rom+0x15ffe9b8>
10000e20:	00100793          	li	a5,1
10000e24:	fef70ae3          	beq	a4,a5,10000e18 <main+0xb1c>
10000e28:	f00037b7          	lui	a5,0xf0003
10000e2c:	00c78713          	addi	a4,a5,12 # f000300c <_esram+0xb8002ad0>
10000e30:	00000793          	li	a5,0
10000e34:	00f72023          	sw	a5,0(a4)
10000e38:	f0003737          	lui	a4,0xf0003
10000e3c:	01c70713          	addi	a4,a4,28 # f000301c <_esram+0xb8002ae0>
10000e40:	00f72023          	sw	a5,0(a4)
10000e44:	f00037b7          	lui	a5,0xf0003
10000e48:	00878713          	addi	a4,a5,8 # f0003008 <_esram+0xb8002acc>
10000e4c:	fff00793          	li	a5,-1
10000e50:	00f72023          	sw	a5,0(a4)
10000e54:	f0003737          	lui	a4,0xf0003
10000e58:	01870713          	addi	a4,a4,24 # f0003018 <_esram+0xb8002adc>
10000e5c:	00f72023          	sw	a5,0(a4)
10000e60:	f00037b7          	lui	a5,0xf0003
10000e64:	00478713          	addi	a4,a5,4 # f0003004 <_esram+0xb8002ac8>
10000e68:	00000793          	li	a5,0
10000e6c:	00f72023          	sw	a5,0(a4)
10000e70:	f0003737          	lui	a4,0xf0003
10000e74:	01470713          	addi	a4,a4,20 # f0003014 <_esram+0xb8002ad8>
10000e78:	00f72023          	sw	a5,0(a4)
10000e7c:	f0003737          	lui	a4,0xf0003
10000e80:	00000793          	li	a5,0
10000e84:	00f72023          	sw	a5,0(a4) # f0003000 <_esram+0xb8002ac4>
10000e88:	f0003737          	lui	a4,0xf0003
10000e8c:	01070713          	addi	a4,a4,16 # f0003010 <_esram+0xb8002ad4>
10000e90:	00f72023          	sw	a5,0(a4)
10000e94:	f00037b7          	lui	a5,0xf0003
10000e98:	03878793          	addi	a5,a5,56 # f0003038 <_esram+0xb8002afc>
10000e9c:	0007a023          	sw	zero,0(a5)
10000ea0:	f00037b7          	lui	a5,0xf0003
10000ea4:	00878713          	addi	a4,a5,8 # f0003008 <_esram+0xb8002acc>
10000ea8:	00000793          	li	a5,0
10000eac:	00f72023          	sw	a5,0(a4)
10000eb0:	f0003737          	lui	a4,0xf0003
10000eb4:	01870713          	addi	a4,a4,24 # f0003018 <_esram+0xb8002adc>
10000eb8:	00f72023          	sw	a5,0(a4)
10000ebc:	27fff097          	auipc	ra,0x27fff
10000ec0:	64c080e7          	jalr	1612(ra) # 38000508 <qsort>
10000ec4:	fea42223          	sw	a0,-28(s0)
10000ec8:	fe442783          	lw	a5,-28(s0)
10000ecc:	0007a783          	lw	a5,0(a5)
10000ed0:	01079713          	slli	a4,a5,0x10
10000ed4:	260007b7          	lui	a5,0x26000
10000ed8:	00c78793          	addi	a5,a5,12 # 2600000c <_esram_rom+0x15ffe9c4>
10000edc:	00e7a023          	sw	a4,0(a5)
10000ee0:	fe442783          	lw	a5,-28(s0)
10000ee4:	00478793          	addi	a5,a5,4
10000ee8:	0007a783          	lw	a5,0(a5)
10000eec:	01079713          	slli	a4,a5,0x10
10000ef0:	260007b7          	lui	a5,0x26000
10000ef4:	00c78793          	addi	a5,a5,12 # 2600000c <_esram_rom+0x15ffe9c4>
10000ef8:	00e7a023          	sw	a4,0(a5)
10000efc:	fe442783          	lw	a5,-28(s0)
10000f00:	00878793          	addi	a5,a5,8
10000f04:	0007a783          	lw	a5,0(a5)
10000f08:	01079713          	slli	a4,a5,0x10
10000f0c:	260007b7          	lui	a5,0x26000
10000f10:	00c78793          	addi	a5,a5,12 # 2600000c <_esram_rom+0x15ffe9c4>
10000f14:	00e7a023          	sw	a4,0(a5)
10000f18:	fe442783          	lw	a5,-28(s0)
10000f1c:	00c78793          	addi	a5,a5,12
10000f20:	0007a783          	lw	a5,0(a5)
10000f24:	01079713          	slli	a4,a5,0x10
10000f28:	260007b7          	lui	a5,0x26000
10000f2c:	00c78793          	addi	a5,a5,12 # 2600000c <_esram_rom+0x15ffe9c4>
10000f30:	00e7a023          	sw	a4,0(a5)
10000f34:	fe442783          	lw	a5,-28(s0)
10000f38:	01078793          	addi	a5,a5,16
10000f3c:	0007a783          	lw	a5,0(a5)
10000f40:	01079713          	slli	a4,a5,0x10
10000f44:	260007b7          	lui	a5,0x26000
10000f48:	00c78793          	addi	a5,a5,12 # 2600000c <_esram_rom+0x15ffe9c4>
10000f4c:	00e7a023          	sw	a4,0(a5)
10000f50:	fe442783          	lw	a5,-28(s0)
10000f54:	01478793          	addi	a5,a5,20
10000f58:	0007a783          	lw	a5,0(a5)
10000f5c:	01079713          	slli	a4,a5,0x10
10000f60:	260007b7          	lui	a5,0x26000
10000f64:	00c78793          	addi	a5,a5,12 # 2600000c <_esram_rom+0x15ffe9c4>
10000f68:	00e7a023          	sw	a4,0(a5)
10000f6c:	fe442783          	lw	a5,-28(s0)
10000f70:	01878793          	addi	a5,a5,24
10000f74:	0007a783          	lw	a5,0(a5)
10000f78:	01079713          	slli	a4,a5,0x10
10000f7c:	260007b7          	lui	a5,0x26000
10000f80:	00c78793          	addi	a5,a5,12 # 2600000c <_esram_rom+0x15ffe9c4>
10000f84:	00e7a023          	sw	a4,0(a5)
10000f88:	fe442783          	lw	a5,-28(s0)
10000f8c:	01c78793          	addi	a5,a5,28
10000f90:	0007a783          	lw	a5,0(a5)
10000f94:	01079713          	slli	a4,a5,0x10
10000f98:	260007b7          	lui	a5,0x26000
10000f9c:	00c78793          	addi	a5,a5,12 # 2600000c <_esram_rom+0x15ffe9c4>
10000fa0:	00e7a023          	sw	a4,0(a5)
10000fa4:	fe442783          	lw	a5,-28(s0)
10000fa8:	02078793          	addi	a5,a5,32
10000fac:	0007a783          	lw	a5,0(a5)
10000fb0:	01079713          	slli	a4,a5,0x10
10000fb4:	260007b7          	lui	a5,0x26000
10000fb8:	00c78793          	addi	a5,a5,12 # 2600000c <_esram_rom+0x15ffe9c4>
10000fbc:	00e7a023          	sw	a4,0(a5)
10000fc0:	fe442783          	lw	a5,-28(s0)
10000fc4:	02478793          	addi	a5,a5,36
10000fc8:	0007a783          	lw	a5,0(a5)
10000fcc:	01079713          	slli	a4,a5,0x10
10000fd0:	260007b7          	lui	a5,0x26000
10000fd4:	00c78793          	addi	a5,a5,12 # 2600000c <_esram_rom+0x15ffe9c4>
10000fd8:	00e7a023          	sw	a4,0(a5)
10000fdc:	fe442783          	lw	a5,-28(s0)
10000fe0:	0007a783          	lw	a5,0(a5)
10000fe4:	01079713          	slli	a4,a5,0x10
10000fe8:	260007b7          	lui	a5,0x26000
10000fec:	00c78793          	addi	a5,a5,12 # 2600000c <_esram_rom+0x15ffe9c4>
10000ff0:	00e7a023          	sw	a4,0(a5)
10000ff4:	f00047b7          	lui	a5,0xf0004
10000ff8:	80078793          	addi	a5,a5,-2048 # f0003800 <_esram+0xb80032c4>
10000ffc:	00100713          	li	a4,1
10001000:	00e7a023          	sw	a4,0(a5)
10001004:	260007b7          	lui	a5,0x26000
10001008:	0a078793          	addi	a5,a5,160 # 260000a0 <_esram_rom+0x15ffea58>
1000100c:	00002737          	lui	a4,0x2
10001010:	80970713          	addi	a4,a4,-2039 # 1809 <_fstack+0x1209>
10001014:	00e7a023          	sw	a4,0(a5)
10001018:	260007b7          	lui	a5,0x26000
1000101c:	09c78793          	addi	a5,a5,156 # 2600009c <_esram_rom+0x15ffea54>
10001020:	00002737          	lui	a4,0x2
10001024:	80970713          	addi	a4,a4,-2039 # 1809 <_fstack+0x1209>
10001028:	00e7a023          	sw	a4,0(a5)
1000102c:	260007b7          	lui	a5,0x26000
10001030:	09878793          	addi	a5,a5,152 # 26000098 <_esram_rom+0x15ffea50>
10001034:	00002737          	lui	a4,0x2
10001038:	80970713          	addi	a4,a4,-2039 # 1809 <_fstack+0x1209>
1000103c:	00e7a023          	sw	a4,0(a5)
10001040:	260007b7          	lui	a5,0x26000
10001044:	09478793          	addi	a5,a5,148 # 26000094 <_esram_rom+0x15ffea4c>
10001048:	00002737          	lui	a4,0x2
1000104c:	80970713          	addi	a4,a4,-2039 # 1809 <_fstack+0x1209>
10001050:	00e7a023          	sw	a4,0(a5)
10001054:	260007b7          	lui	a5,0x26000
10001058:	09078793          	addi	a5,a5,144 # 26000090 <_esram_rom+0x15ffea48>
1000105c:	00002737          	lui	a4,0x2
10001060:	80970713          	addi	a4,a4,-2039 # 1809 <_fstack+0x1209>
10001064:	00e7a023          	sw	a4,0(a5)
10001068:	260007b7          	lui	a5,0x26000
1000106c:	08c78793          	addi	a5,a5,140 # 2600008c <_esram_rom+0x15ffea44>
10001070:	00002737          	lui	a4,0x2
10001074:	80970713          	addi	a4,a4,-2039 # 1809 <_fstack+0x1209>
10001078:	00e7a023          	sw	a4,0(a5)
1000107c:	260007b7          	lui	a5,0x26000
10001080:	08878793          	addi	a5,a5,136 # 26000088 <_esram_rom+0x15ffea40>
10001084:	00002737          	lui	a4,0x2
10001088:	80970713          	addi	a4,a4,-2039 # 1809 <_fstack+0x1209>
1000108c:	00e7a023          	sw	a4,0(a5)
10001090:	260007b7          	lui	a5,0x26000
10001094:	08478793          	addi	a5,a5,132 # 26000084 <_esram_rom+0x15ffea3c>
10001098:	00002737          	lui	a4,0x2
1000109c:	80970713          	addi	a4,a4,-2039 # 1809 <_fstack+0x1209>
100010a0:	00e7a023          	sw	a4,0(a5)
100010a4:	260007b7          	lui	a5,0x26000
100010a8:	08078793          	addi	a5,a5,128 # 26000080 <_esram_rom+0x15ffea38>
100010ac:	00002737          	lui	a4,0x2
100010b0:	80970713          	addi	a4,a4,-2039 # 1809 <_fstack+0x1209>
100010b4:	00e7a023          	sw	a4,0(a5)
100010b8:	260007b7          	lui	a5,0x26000
100010bc:	07c78793          	addi	a5,a5,124 # 2600007c <_esram_rom+0x15ffea34>
100010c0:	00002737          	lui	a4,0x2
100010c4:	80970713          	addi	a4,a4,-2039 # 1809 <_fstack+0x1209>
100010c8:	00e7a023          	sw	a4,0(a5)
100010cc:	260007b7          	lui	a5,0x26000
100010d0:	07878793          	addi	a5,a5,120 # 26000078 <_esram_rom+0x15ffea30>
100010d4:	00002737          	lui	a4,0x2
100010d8:	80970713          	addi	a4,a4,-2039 # 1809 <_fstack+0x1209>
100010dc:	00e7a023          	sw	a4,0(a5)
100010e0:	260007b7          	lui	a5,0x26000
100010e4:	07478793          	addi	a5,a5,116 # 26000074 <_esram_rom+0x15ffea2c>
100010e8:	00002737          	lui	a4,0x2
100010ec:	80970713          	addi	a4,a4,-2039 # 1809 <_fstack+0x1209>
100010f0:	00e7a023          	sw	a4,0(a5)
100010f4:	260007b7          	lui	a5,0x26000
100010f8:	07078793          	addi	a5,a5,112 # 26000070 <_esram_rom+0x15ffea28>
100010fc:	00002737          	lui	a4,0x2
10001100:	80970713          	addi	a4,a4,-2039 # 1809 <_fstack+0x1209>
10001104:	00e7a023          	sw	a4,0(a5)
10001108:	260007b7          	lui	a5,0x26000
1000110c:	06c78793          	addi	a5,a5,108 # 2600006c <_esram_rom+0x15ffea24>
10001110:	00002737          	lui	a4,0x2
10001114:	80970713          	addi	a4,a4,-2039 # 1809 <_fstack+0x1209>
10001118:	00e7a023          	sw	a4,0(a5)
1000111c:	260007b7          	lui	a5,0x26000
10001120:	06878793          	addi	a5,a5,104 # 26000068 <_esram_rom+0x15ffea20>
10001124:	00002737          	lui	a4,0x2
10001128:	80970713          	addi	a4,a4,-2039 # 1809 <_fstack+0x1209>
1000112c:	00e7a023          	sw	a4,0(a5)
10001130:	260007b7          	lui	a5,0x26000
10001134:	06478793          	addi	a5,a5,100 # 26000064 <_esram_rom+0x15ffea1c>
10001138:	00002737          	lui	a4,0x2
1000113c:	80970713          	addi	a4,a4,-2039 # 1809 <_fstack+0x1209>
10001140:	00e7a023          	sw	a4,0(a5)
10001144:	260007b7          	lui	a5,0x26000
10001148:	06078793          	addi	a5,a5,96 # 26000060 <_esram_rom+0x15ffea18>
1000114c:	00002737          	lui	a4,0x2
10001150:	80970713          	addi	a4,a4,-2039 # 1809 <_fstack+0x1209>
10001154:	00e7a023          	sw	a4,0(a5)
10001158:	260007b7          	lui	a5,0x26000
1000115c:	05c78793          	addi	a5,a5,92 # 2600005c <_esram_rom+0x15ffea14>
10001160:	00002737          	lui	a4,0x2
10001164:	80970713          	addi	a4,a4,-2039 # 1809 <_fstack+0x1209>
10001168:	00e7a023          	sw	a4,0(a5)
1000116c:	260007b7          	lui	a5,0x26000
10001170:	05878793          	addi	a5,a5,88 # 26000058 <_esram_rom+0x15ffea10>
10001174:	00002737          	lui	a4,0x2
10001178:	80970713          	addi	a4,a4,-2039 # 1809 <_fstack+0x1209>
1000117c:	00e7a023          	sw	a4,0(a5)
10001180:	260007b7          	lui	a5,0x26000
10001184:	05478793          	addi	a5,a5,84 # 26000054 <_esram_rom+0x15ffea0c>
10001188:	00002737          	lui	a4,0x2
1000118c:	80970713          	addi	a4,a4,-2039 # 1809 <_fstack+0x1209>
10001190:	00e7a023          	sw	a4,0(a5)
10001194:	260007b7          	lui	a5,0x26000
10001198:	05078793          	addi	a5,a5,80 # 26000050 <_esram_rom+0x15ffea08>
1000119c:	00002737          	lui	a4,0x2
100011a0:	80970713          	addi	a4,a4,-2039 # 1809 <_fstack+0x1209>
100011a4:	00e7a023          	sw	a4,0(a5)
100011a8:	260007b7          	lui	a5,0x26000
100011ac:	04c78793          	addi	a5,a5,76 # 2600004c <_esram_rom+0x15ffea04>
100011b0:	00002737          	lui	a4,0x2
100011b4:	80970713          	addi	a4,a4,-2039 # 1809 <_fstack+0x1209>
100011b8:	00e7a023          	sw	a4,0(a5)
100011bc:	260007b7          	lui	a5,0x26000
100011c0:	04878793          	addi	a5,a5,72 # 26000048 <_esram_rom+0x15ffea00>
100011c4:	00002737          	lui	a4,0x2
100011c8:	80970713          	addi	a4,a4,-2039 # 1809 <_fstack+0x1209>
100011cc:	00e7a023          	sw	a4,0(a5)
100011d0:	260007b7          	lui	a5,0x26000
100011d4:	04478793          	addi	a5,a5,68 # 26000044 <_esram_rom+0x15ffe9fc>
100011d8:	00002737          	lui	a4,0x2
100011dc:	80970713          	addi	a4,a4,-2039 # 1809 <_fstack+0x1209>
100011e0:	00e7a023          	sw	a4,0(a5)
100011e4:	260007b7          	lui	a5,0x26000
100011e8:	04078793          	addi	a5,a5,64 # 26000040 <_esram_rom+0x15ffe9f8>
100011ec:	00002737          	lui	a4,0x2
100011f0:	80970713          	addi	a4,a4,-2039 # 1809 <_fstack+0x1209>
100011f4:	00e7a023          	sw	a4,0(a5)
100011f8:	260007b7          	lui	a5,0x26000
100011fc:	03478793          	addi	a5,a5,52 # 26000034 <_esram_rom+0x15ffe9ec>
10001200:	00002737          	lui	a4,0x2
10001204:	80970713          	addi	a4,a4,-2039 # 1809 <_fstack+0x1209>
10001208:	00e7a023          	sw	a4,0(a5)
1000120c:	260007b7          	lui	a5,0x26000
10001210:	03078793          	addi	a5,a5,48 # 26000030 <_esram_rom+0x15ffe9e8>
10001214:	00002737          	lui	a4,0x2
10001218:	80970713          	addi	a4,a4,-2039 # 1809 <_fstack+0x1209>
1000121c:	00e7a023          	sw	a4,0(a5)
10001220:	260007b7          	lui	a5,0x26000
10001224:	02c78793          	addi	a5,a5,44 # 2600002c <_esram_rom+0x15ffe9e4>
10001228:	00002737          	lui	a4,0x2
1000122c:	80970713          	addi	a4,a4,-2039 # 1809 <_fstack+0x1209>
10001230:	00e7a023          	sw	a4,0(a5)
10001234:	260007b7          	lui	a5,0x26000
10001238:	02878793          	addi	a5,a5,40 # 26000028 <_esram_rom+0x15ffe9e0>
1000123c:	00002737          	lui	a4,0x2
10001240:	80970713          	addi	a4,a4,-2039 # 1809 <_fstack+0x1209>
10001244:	00e7a023          	sw	a4,0(a5)
10001248:	260007b7          	lui	a5,0x26000
1000124c:	02478793          	addi	a5,a5,36 # 26000024 <_esram_rom+0x15ffe9dc>
10001250:	00002737          	lui	a4,0x2
10001254:	80970713          	addi	a4,a4,-2039 # 1809 <_fstack+0x1209>
10001258:	00e7a023          	sw	a4,0(a5)
1000125c:	260007b7          	lui	a5,0x26000
10001260:	03c78793          	addi	a5,a5,60 # 2600003c <_esram_rom+0x15ffe9f4>
10001264:	00002737          	lui	a4,0x2
10001268:	80870713          	addi	a4,a4,-2040 # 1808 <_fstack+0x1208>
1000126c:	00e7a023          	sw	a4,0(a5)
10001270:	260007b7          	lui	a5,0x26000
10001274:	03878793          	addi	a5,a5,56 # 26000038 <_esram_rom+0x15ffe9f0>
10001278:	40200713          	li	a4,1026
1000127c:	00e7a023          	sw	a4,0(a5)
10001280:	260007b7          	lui	a5,0x26000
10001284:	00100713          	li	a4,1
10001288:	00e7a023          	sw	a4,0(a5) # 26000000 <_esram_rom+0x15ffe9b8>
1000128c:	00000013          	nop
10001290:	260007b7          	lui	a5,0x26000
10001294:	0007a703          	lw	a4,0(a5) # 26000000 <_esram_rom+0x15ffe9b8>
10001298:	00100793          	li	a5,1
1000129c:	fef70ae3          	beq	a4,a5,10001290 <main+0xf94>
100012a0:	f00037b7          	lui	a5,0xf0003
100012a4:	00c78713          	addi	a4,a5,12 # f000300c <_esram+0xb8002ad0>
100012a8:	00000793          	li	a5,0
100012ac:	00f72023          	sw	a5,0(a4)
100012b0:	f0003737          	lui	a4,0xf0003
100012b4:	01c70713          	addi	a4,a4,28 # f000301c <_esram+0xb8002ae0>
100012b8:	00f72023          	sw	a5,0(a4)
100012bc:	f00037b7          	lui	a5,0xf0003
100012c0:	00878713          	addi	a4,a5,8 # f0003008 <_esram+0xb8002acc>
100012c4:	fff00793          	li	a5,-1
100012c8:	00f72023          	sw	a5,0(a4)
100012cc:	f0003737          	lui	a4,0xf0003
100012d0:	01870713          	addi	a4,a4,24 # f0003018 <_esram+0xb8002adc>
100012d4:	00f72023          	sw	a5,0(a4)
100012d8:	f00037b7          	lui	a5,0xf0003
100012dc:	00478713          	addi	a4,a5,4 # f0003004 <_esram+0xb8002ac8>
100012e0:	00000793          	li	a5,0
100012e4:	00f72023          	sw	a5,0(a4)
100012e8:	f0003737          	lui	a4,0xf0003
100012ec:	01470713          	addi	a4,a4,20 # f0003014 <_esram+0xb8002ad8>
100012f0:	00f72023          	sw	a5,0(a4)
100012f4:	f0003737          	lui	a4,0xf0003
100012f8:	00000793          	li	a5,0
100012fc:	00f72023          	sw	a5,0(a4) # f0003000 <_esram+0xb8002ac4>
10001300:	f0003737          	lui	a4,0xf0003
10001304:	01070713          	addi	a4,a4,16 # f0003010 <_esram+0xb8002ad4>
10001308:	00f72023          	sw	a5,0(a4)
1000130c:	f00037b7          	lui	a5,0xf0003
10001310:	03878793          	addi	a5,a5,56 # f0003038 <_esram+0xb8002afc>
10001314:	0007a023          	sw	zero,0(a5)
10001318:	f00037b7          	lui	a5,0xf0003
1000131c:	00878713          	addi	a4,a5,8 # f0003008 <_esram+0xb8002acc>
10001320:	00000793          	li	a5,0
10001324:	00f72023          	sw	a5,0(a4)
10001328:	f0003737          	lui	a4,0xf0003
1000132c:	01870713          	addi	a4,a4,24 # f0003018 <_esram+0xb8002adc>
10001330:	00f72023          	sw	a5,0(a4)
10001334:	260007b7          	lui	a5,0x26000
10001338:	00c78793          	addi	a5,a5,12 # 2600000c <_esram_rom+0x15ffe9c4>
1000133c:	ab510737          	lui	a4,0xab510
10001340:	00e7a023          	sw	a4,0(a5)
10001344:	00000013          	nop
10001348:	01c12083          	lw	ra,28(sp)
1000134c:	01812403          	lw	s0,24(sp)
10001350:	02010113          	addi	sp,sp,32
10001354:	00008067          	ret

Disassembly of section .mprj:

10001358 <uart_write>:
10001358:	fe010113          	addi	sp,sp,-32
1000135c:	00812e23          	sw	s0,28(sp)
10001360:	02010413          	addi	s0,sp,32
10001364:	fea42623          	sw	a0,-20(s0)
10001368:	00000013          	nop
1000136c:	300007b7          	lui	a5,0x30000
10001370:	00878793          	addi	a5,a5,8 # 30000008 <_esram_rom+0x1fffe9c0>
10001374:	0007a783          	lw	a5,0(a5)
10001378:	0087f793          	andi	a5,a5,8
1000137c:	fe0798e3          	bnez	a5,1000136c <uart_write+0x14>
10001380:	300007b7          	lui	a5,0x30000
10001384:	00478793          	addi	a5,a5,4 # 30000004 <_esram_rom+0x1fffe9bc>
10001388:	fec42703          	lw	a4,-20(s0)
1000138c:	00e7a023          	sw	a4,0(a5)
10001390:	00000013          	nop
10001394:	01c12403          	lw	s0,28(sp)
10001398:	02010113          	addi	sp,sp,32
1000139c:	00008067          	ret

100013a0 <uart_write_char>:
100013a0:	fe010113          	addi	sp,sp,-32
100013a4:	00112e23          	sw	ra,28(sp)
100013a8:	00812c23          	sw	s0,24(sp)
100013ac:	02010413          	addi	s0,sp,32
100013b0:	00050793          	mv	a5,a0
100013b4:	fef407a3          	sb	a5,-17(s0)
100013b8:	fef44703          	lbu	a4,-17(s0)
100013bc:	00a00793          	li	a5,10
100013c0:	00f71663          	bne	a4,a5,100013cc <uart_write_char+0x2c>
100013c4:	00d00513          	li	a0,13
100013c8:	fd9ff0ef          	jal	ra,100013a0 <uart_write_char>
100013cc:	00000013          	nop
100013d0:	300007b7          	lui	a5,0x30000
100013d4:	00878793          	addi	a5,a5,8 # 30000008 <_esram_rom+0x1fffe9c0>
100013d8:	0007a783          	lw	a5,0(a5)
100013dc:	0087f793          	andi	a5,a5,8
100013e0:	fe0798e3          	bnez	a5,100013d0 <uart_write_char+0x30>
100013e4:	300007b7          	lui	a5,0x30000
100013e8:	00478793          	addi	a5,a5,4 # 30000004 <_esram_rom+0x1fffe9bc>
100013ec:	fef44703          	lbu	a4,-17(s0)
100013f0:	00e7a023          	sw	a4,0(a5)
100013f4:	00000013          	nop
100013f8:	01c12083          	lw	ra,28(sp)
100013fc:	01812403          	lw	s0,24(sp)
10001400:	02010113          	addi	sp,sp,32
10001404:	00008067          	ret

10001408 <uart_write_string>:
10001408:	fe010113          	addi	sp,sp,-32
1000140c:	00112e23          	sw	ra,28(sp)
10001410:	00812c23          	sw	s0,24(sp)
10001414:	02010413          	addi	s0,sp,32
10001418:	fea42623          	sw	a0,-20(s0)
1000141c:	01c0006f          	j	10001438 <uart_write_string+0x30>
10001420:	fec42783          	lw	a5,-20(s0)
10001424:	00178713          	addi	a4,a5,1
10001428:	fee42623          	sw	a4,-20(s0)
1000142c:	0007c783          	lbu	a5,0(a5)
10001430:	00078513          	mv	a0,a5
10001434:	f6dff0ef          	jal	ra,100013a0 <uart_write_char>
10001438:	fec42783          	lw	a5,-20(s0)
1000143c:	0007c783          	lbu	a5,0(a5)
10001440:	fe0790e3          	bnez	a5,10001420 <uart_write_string+0x18>
10001444:	00000013          	nop
10001448:	00000013          	nop
1000144c:	01c12083          	lw	ra,28(sp)
10001450:	01812403          	lw	s0,24(sp)
10001454:	02010113          	addi	sp,sp,32
10001458:	00008067          	ret

1000145c <uart_read_char>:
1000145c:	fe010113          	addi	sp,sp,-32
10001460:	00812e23          	sw	s0,28(sp)
10001464:	02010413          	addi	s0,sp,32
10001468:	300007b7          	lui	a5,0x30000
1000146c:	00878793          	addi	a5,a5,8 # 30000008 <_esram_rom+0x1fffe9c0>
10001470:	0007a783          	lw	a5,0(a5)
10001474:	0057d793          	srli	a5,a5,0x5
10001478:	04079263          	bnez	a5,100014bc <uart_read_char+0x60>
1000147c:	300007b7          	lui	a5,0x30000
10001480:	00878793          	addi	a5,a5,8 # 30000008 <_esram_rom+0x1fffe9c0>
10001484:	0007a783          	lw	a5,0(a5)
10001488:	0047d793          	srli	a5,a5,0x4
1000148c:	02079863          	bnez	a5,100014bc <uart_read_char+0x60>
10001490:	fe042423          	sw	zero,-24(s0)
10001494:	0140006f          	j	100014a8 <uart_read_char+0x4c>
10001498:	00000013          	nop
1000149c:	fe842783          	lw	a5,-24(s0)
100014a0:	00178793          	addi	a5,a5,1
100014a4:	fef42423          	sw	a5,-24(s0)
100014a8:	fe842783          	lw	a5,-24(s0)
100014ac:	fef056e3          	blez	a5,10001498 <uart_read_char+0x3c>
100014b0:	300007b7          	lui	a5,0x30000
100014b4:	0007a783          	lw	a5,0(a5) # 30000000 <_esram_rom+0x1fffe9b8>
100014b8:	fef407a3          	sb	a5,-17(s0)
100014bc:	fef44783          	lbu	a5,-17(s0)
100014c0:	00078513          	mv	a0,a5
100014c4:	01c12403          	lw	s0,28(sp)
100014c8:	02010113          	addi	sp,sp,32
100014cc:	00008067          	ret

100014d0 <uart_read>:
100014d0:	fe010113          	addi	sp,sp,-32
100014d4:	00812e23          	sw	s0,28(sp)
100014d8:	02010413          	addi	s0,sp,32
100014dc:	300007b7          	lui	a5,0x30000
100014e0:	00878793          	addi	a5,a5,8 # 30000008 <_esram_rom+0x1fffe9c0>
100014e4:	0007a783          	lw	a5,0(a5)
100014e8:	0057d793          	srli	a5,a5,0x5
100014ec:	04079263          	bnez	a5,10001530 <uart_read+0x60>
100014f0:	300007b7          	lui	a5,0x30000
100014f4:	00878793          	addi	a5,a5,8 # 30000008 <_esram_rom+0x1fffe9c0>
100014f8:	0007a783          	lw	a5,0(a5)
100014fc:	0047d793          	srli	a5,a5,0x4
10001500:	02079863          	bnez	a5,10001530 <uart_read+0x60>
10001504:	fe042423          	sw	zero,-24(s0)
10001508:	0140006f          	j	1000151c <uart_read+0x4c>
1000150c:	00000013          	nop
10001510:	fe842783          	lw	a5,-24(s0)
10001514:	00178793          	addi	a5,a5,1
10001518:	fef42423          	sw	a5,-24(s0)
1000151c:	fe842783          	lw	a5,-24(s0)
10001520:	fef056e3          	blez	a5,1000150c <uart_read+0x3c>
10001524:	300007b7          	lui	a5,0x30000
10001528:	0007a783          	lw	a5,0(a5) # 30000000 <_esram_rom+0x1fffe9b8>
1000152c:	fef42623          	sw	a5,-20(s0)
10001530:	fec42783          	lw	a5,-20(s0)
10001534:	00078513          	mv	a0,a5
10001538:	01c12403          	lw	s0,28(sp)
1000153c:	02010113          	addi	sp,sp,32
10001540:	00008067          	ret

Disassembly of section .rodata:

10001544 <_erodata-0x4>:
10001544:	0000                	.2byte	0x0
	...

Disassembly of section .data:

00000000 <taps>:
   0:	0000                	.2byte	0x0
   2:	0000                	.2byte	0x0
   4:	fff6                	.2byte	0xfff6
   6:	ffff                	.2byte	0xffff
   8:	fffffff7          	.4byte	0xfffffff7
   c:	00000017          	auipc	zero,0x0
  10:	0038                	.2byte	0x38
  12:	0000                	.2byte	0x0
  14:	0000003f 00000038 	.8byte	0x380000003f
  1c:	00000017          	auipc	zero,0x0
  20:	fffffff7          	.4byte	0xfffffff7
  24:	fff6                	.2byte	0xfff6
  26:	ffff                	.2byte	0xffff
  28:	0000                	.2byte	0x0
	...

0000002c <inputsignal>:
  2c:	0001                	.2byte	0x1
  2e:	0000                	.2byte	0x0
  30:	0002                	.2byte	0x2
  32:	0000                	.2byte	0x0
  34:	00000003          	lb	zero,0(zero) # 0 <taps>
  38:	0004                	.2byte	0x4
  3a:	0000                	.2byte	0x0
  3c:	0005                	.2byte	0x5
  3e:	0000                	.2byte	0x0
  40:	0006                	.2byte	0x6
  42:	0000                	.2byte	0x0
  44:	00000007          	.4byte	0x7
  48:	0008                	.2byte	0x8
  4a:	0000                	.2byte	0x0
  4c:	0009                	.2byte	0x9
  4e:	0000                	.2byte	0x0
  50:	000a                	.2byte	0xa
  52:	0000                	.2byte	0x0
  54:	0000000b          	.4byte	0xb

00000058 <A>:
  58:	0000                	.2byte	0x0
  5a:	0000                	.2byte	0x0
  5c:	0001                	.2byte	0x1
  5e:	0000                	.2byte	0x0
  60:	0002                	.2byte	0x2
  62:	0000                	.2byte	0x0
  64:	00000003          	lb	zero,0(zero) # 0 <taps>
  68:	0000                	.2byte	0x0
  6a:	0000                	.2byte	0x0
  6c:	0001                	.2byte	0x1
  6e:	0000                	.2byte	0x0
  70:	0002                	.2byte	0x2
  72:	0000                	.2byte	0x0
  74:	00000003          	lb	zero,0(zero) # 0 <taps>
  78:	0000                	.2byte	0x0
  7a:	0000                	.2byte	0x0
  7c:	0001                	.2byte	0x1
  7e:	0000                	.2byte	0x0
  80:	0002                	.2byte	0x2
  82:	0000                	.2byte	0x0
  84:	00000003          	lb	zero,0(zero) # 0 <taps>
  88:	0000                	.2byte	0x0
  8a:	0000                	.2byte	0x0
  8c:	0001                	.2byte	0x1
  8e:	0000                	.2byte	0x0
  90:	0002                	.2byte	0x2
  92:	0000                	.2byte	0x0
  94:	00000003          	lb	zero,0(zero) # 0 <taps>

00000098 <B>:
  98:	0001                	.2byte	0x1
  9a:	0000                	.2byte	0x0
  9c:	0002                	.2byte	0x2
  9e:	0000                	.2byte	0x0
  a0:	00000003          	lb	zero,0(zero) # 0 <taps>
  a4:	0004                	.2byte	0x4
  a6:	0000                	.2byte	0x0
  a8:	0005                	.2byte	0x5
  aa:	0000                	.2byte	0x0
  ac:	0006                	.2byte	0x6
  ae:	0000                	.2byte	0x0
  b0:	00000007          	.4byte	0x7
  b4:	0008                	.2byte	0x8
  b6:	0000                	.2byte	0x0
  b8:	0009                	.2byte	0x9
  ba:	0000                	.2byte	0x0
  bc:	000a                	.2byte	0xa
  be:	0000                	.2byte	0x0
  c0:	0000000b          	.4byte	0xb
  c4:	000c                	.2byte	0xc
  c6:	0000                	.2byte	0x0
  c8:	000d                	.2byte	0xd
  ca:	0000                	.2byte	0x0
  cc:	000e                	.2byte	0xe
  ce:	0000                	.2byte	0x0
  d0:	0000000f          	fence	unknown,unknown
  d4:	0010                	.2byte	0x10
	...

000000d8 <A_Q>:
  d8:	037d                	.2byte	0x37d
  da:	0000                	.2byte	0x0
  dc:	0028                	.2byte	0x28
  de:	0000                	.2byte	0x0
  e0:	0ca1                	.2byte	0xca1
  e2:	0000                	.2byte	0x0
  e4:	000010ab          	.4byte	0x10ab
  e8:	0a6d                	.2byte	0xa6d
  ea:	0000                	.2byte	0x0
  ec:	09ed                	.2byte	0x9ed
  ee:	0000                	.2byte	0x0
  f0:	2371                	.2byte	0x2371
  f2:	0000                	.2byte	0x0
  f4:	00001787          	.4byte	0x1787
  f8:	1631                	.2byte	0x1631
  fa:	0000                	.2byte	0x0
  fc:	120e                	.2byte	0x120e
	...

Disassembly of section .bss:

00000100 <inputbuffer>:
	...

0000012c <outputsignal>:
	...

00000158 <result>:
	...

Disassembly of section .mprjram:

38000000 <__mulsi3>:
38000000:	00050613          	mv	a2,a0
38000004:	00000513          	li	a0,0
38000008:	0015f693          	andi	a3,a1,1
3800000c:	00068463          	beqz	a3,38000014 <__mulsi3+0x14>
38000010:	00c50533          	add	a0,a0,a2
38000014:	0015d593          	srli	a1,a1,0x1
38000018:	00161613          	slli	a2,a2,0x1
3800001c:	fe0596e3          	bnez	a1,38000008 <__mulsi3+0x8>
38000020:	00008067          	ret

38000024 <initfir>:
38000024:	fe010113          	addi	sp,sp,-32
38000028:	00812e23          	sw	s0,28(sp)
3800002c:	02010413          	addi	s0,sp,32
38000030:	fe042623          	sw	zero,-20(s0)
38000034:	0380006f          	j	3800006c <initfir+0x48>
38000038:	10000713          	li	a4,256
3800003c:	fec42783          	lw	a5,-20(s0)
38000040:	00279793          	slli	a5,a5,0x2
38000044:	00f707b3          	add	a5,a4,a5
38000048:	0007a023          	sw	zero,0(a5)
3800004c:	12c00713          	li	a4,300
38000050:	fec42783          	lw	a5,-20(s0)
38000054:	00279793          	slli	a5,a5,0x2
38000058:	00f707b3          	add	a5,a4,a5
3800005c:	0007a023          	sw	zero,0(a5)
38000060:	fec42783          	lw	a5,-20(s0)
38000064:	00178793          	addi	a5,a5,1
38000068:	fef42623          	sw	a5,-20(s0)
3800006c:	fec42703          	lw	a4,-20(s0)
38000070:	00a00793          	li	a5,10
38000074:	fce7d2e3          	bge	a5,a4,38000038 <initfir+0x14>
38000078:	00000013          	nop
3800007c:	00000013          	nop
38000080:	01c12403          	lw	s0,28(sp)
38000084:	02010113          	addi	sp,sp,32
38000088:	00008067          	ret

3800008c <firfilter>:
3800008c:	fd010113          	addi	sp,sp,-48
38000090:	02112623          	sw	ra,44(sp)
38000094:	02812423          	sw	s0,40(sp)
38000098:	03010413          	addi	s0,sp,48
3800009c:	fca42e23          	sw	a0,-36(s0)
380000a0:	00a00793          	li	a5,10
380000a4:	fef42623          	sw	a5,-20(s0)
380000a8:	03c0006f          	j	380000e4 <firfilter+0x58>
380000ac:	fec42783          	lw	a5,-20(s0)
380000b0:	fff78793          	addi	a5,a5,-1
380000b4:	10000713          	li	a4,256
380000b8:	00279793          	slli	a5,a5,0x2
380000bc:	00f707b3          	add	a5,a4,a5
380000c0:	0007a703          	lw	a4,0(a5)
380000c4:	10000693          	li	a3,256
380000c8:	fec42783          	lw	a5,-20(s0)
380000cc:	00279793          	slli	a5,a5,0x2
380000d0:	00f687b3          	add	a5,a3,a5
380000d4:	00e7a023          	sw	a4,0(a5)
380000d8:	fec42783          	lw	a5,-20(s0)
380000dc:	fff78793          	addi	a5,a5,-1
380000e0:	fef42623          	sw	a5,-20(s0)
380000e4:	fec42783          	lw	a5,-20(s0)
380000e8:	fcf042e3          	bgtz	a5,380000ac <firfilter+0x20>
380000ec:	10000793          	li	a5,256
380000f0:	fdc42703          	lw	a4,-36(s0)
380000f4:	00e7a023          	sw	a4,0(a5)
380000f8:	fe042423          	sw	zero,-24(s0)
380000fc:	fe042223          	sw	zero,-28(s0)
38000100:	0580006f          	j	38000158 <firfilter+0xcc>
38000104:	00000713          	li	a4,0
38000108:	fe442783          	lw	a5,-28(s0)
3800010c:	00279793          	slli	a5,a5,0x2
38000110:	00f707b3          	add	a5,a4,a5
38000114:	0007a683          	lw	a3,0(a5)
38000118:	10000713          	li	a4,256
3800011c:	fe442783          	lw	a5,-28(s0)
38000120:	00279793          	slli	a5,a5,0x2
38000124:	00f707b3          	add	a5,a4,a5
38000128:	0007a783          	lw	a5,0(a5)
3800012c:	00078593          	mv	a1,a5
38000130:	00068513          	mv	a0,a3
38000134:	ecdff0ef          	jal	ra,38000000 <__mulsi3>
38000138:	00050793          	mv	a5,a0
3800013c:	00078713          	mv	a4,a5
38000140:	fe842783          	lw	a5,-24(s0)
38000144:	00e787b3          	add	a5,a5,a4
38000148:	fef42423          	sw	a5,-24(s0)
3800014c:	fe442783          	lw	a5,-28(s0)
38000150:	00178793          	addi	a5,a5,1
38000154:	fef42223          	sw	a5,-28(s0)
38000158:	fe442703          	lw	a4,-28(s0)
3800015c:	00a00793          	li	a5,10
38000160:	fae7d2e3          	bge	a5,a4,38000104 <firfilter+0x78>
38000164:	fe842783          	lw	a5,-24(s0)
38000168:	00078513          	mv	a0,a5
3800016c:	02c12083          	lw	ra,44(sp)
38000170:	02812403          	lw	s0,40(sp)
38000174:	03010113          	addi	sp,sp,48
38000178:	00008067          	ret

3800017c <fir>:
3800017c:	fe010113          	addi	sp,sp,-32
38000180:	00112e23          	sw	ra,28(sp)
38000184:	00812c23          	sw	s0,24(sp)
38000188:	02010413          	addi	s0,sp,32
3800018c:	e99ff0ef          	jal	ra,38000024 <initfir>
38000190:	fe042623          	sw	zero,-20(s0)
38000194:	0440006f          	j	380001d8 <fir+0x5c>
38000198:	02c00713          	li	a4,44
3800019c:	fec42783          	lw	a5,-20(s0)
380001a0:	00279793          	slli	a5,a5,0x2
380001a4:	00f707b3          	add	a5,a4,a5
380001a8:	0007a783          	lw	a5,0(a5)
380001ac:	00078513          	mv	a0,a5
380001b0:	eddff0ef          	jal	ra,3800008c <firfilter>
380001b4:	00050693          	mv	a3,a0
380001b8:	12c00713          	li	a4,300
380001bc:	fec42783          	lw	a5,-20(s0)
380001c0:	00279793          	slli	a5,a5,0x2
380001c4:	00f707b3          	add	a5,a4,a5
380001c8:	00d7a023          	sw	a3,0(a5)
380001cc:	fec42783          	lw	a5,-20(s0)
380001d0:	00178793          	addi	a5,a5,1
380001d4:	fef42623          	sw	a5,-20(s0)
380001d8:	fec42703          	lw	a4,-20(s0)
380001dc:	00a00793          	li	a5,10
380001e0:	fae7dce3          	bge	a5,a4,38000198 <fir+0x1c>
380001e4:	12c00793          	li	a5,300
380001e8:	00078513          	mv	a0,a5
380001ec:	01c12083          	lw	ra,28(sp)
380001f0:	01812403          	lw	s0,24(sp)
380001f4:	02010113          	addi	sp,sp,32
380001f8:	00008067          	ret

380001fc <matmul>:
380001fc:	fd010113          	addi	sp,sp,-48
38000200:	02112623          	sw	ra,44(sp)
38000204:	02812423          	sw	s0,40(sp)
38000208:	03010413          	addi	s0,sp,48
3800020c:	fe042623          	sw	zero,-20(s0)
38000210:	fc042e23          	sw	zero,-36(s0)
38000214:	fe042623          	sw	zero,-20(s0)
38000218:	0d80006f          	j	380002f0 <matmul+0xf4>
3800021c:	fe042423          	sw	zero,-24(s0)
38000220:	0b80006f          	j	380002d8 <matmul+0xdc>
38000224:	fe042023          	sw	zero,-32(s0)
38000228:	fe042223          	sw	zero,-28(s0)
3800022c:	0700006f          	j	3800029c <matmul+0xa0>
38000230:	fec42783          	lw	a5,-20(s0)
38000234:	00279713          	slli	a4,a5,0x2
38000238:	fe442783          	lw	a5,-28(s0)
3800023c:	00f707b3          	add	a5,a4,a5
38000240:	05800713          	li	a4,88
38000244:	00279793          	slli	a5,a5,0x2
38000248:	00f707b3          	add	a5,a4,a5
3800024c:	0007a683          	lw	a3,0(a5)
38000250:	fe442783          	lw	a5,-28(s0)
38000254:	00279713          	slli	a4,a5,0x2
38000258:	fe842783          	lw	a5,-24(s0)
3800025c:	00f707b3          	add	a5,a4,a5
38000260:	09800713          	li	a4,152
38000264:	00279793          	slli	a5,a5,0x2
38000268:	00f707b3          	add	a5,a4,a5
3800026c:	0007a783          	lw	a5,0(a5)
38000270:	00078593          	mv	a1,a5
38000274:	00068513          	mv	a0,a3
38000278:	d89ff0ef          	jal	ra,38000000 <__mulsi3>
3800027c:	00050793          	mv	a5,a0
38000280:	00078713          	mv	a4,a5
38000284:	fe042783          	lw	a5,-32(s0)
38000288:	00e787b3          	add	a5,a5,a4
3800028c:	fef42023          	sw	a5,-32(s0)
38000290:	fe442783          	lw	a5,-28(s0)
38000294:	00178793          	addi	a5,a5,1
38000298:	fef42223          	sw	a5,-28(s0)
3800029c:	fe442703          	lw	a4,-28(s0)
380002a0:	00300793          	li	a5,3
380002a4:	f8e7d6e3          	bge	a5,a4,38000230 <matmul+0x34>
380002a8:	fec42783          	lw	a5,-20(s0)
380002ac:	00279713          	slli	a4,a5,0x2
380002b0:	fe842783          	lw	a5,-24(s0)
380002b4:	00f707b3          	add	a5,a4,a5
380002b8:	15800713          	li	a4,344
380002bc:	00279793          	slli	a5,a5,0x2
380002c0:	00f707b3          	add	a5,a4,a5
380002c4:	fe042703          	lw	a4,-32(s0)
380002c8:	00e7a023          	sw	a4,0(a5)
380002cc:	fe842783          	lw	a5,-24(s0)
380002d0:	00178793          	addi	a5,a5,1
380002d4:	fef42423          	sw	a5,-24(s0)
380002d8:	fe842703          	lw	a4,-24(s0)
380002dc:	00300793          	li	a5,3
380002e0:	f4e7d2e3          	bge	a5,a4,38000224 <matmul+0x28>
380002e4:	fec42783          	lw	a5,-20(s0)
380002e8:	00178793          	addi	a5,a5,1
380002ec:	fef42623          	sw	a5,-20(s0)
380002f0:	fec42703          	lw	a4,-20(s0)
380002f4:	00300793          	li	a5,3
380002f8:	f2e7d2e3          	bge	a5,a4,3800021c <matmul+0x20>
380002fc:	15800793          	li	a5,344
38000300:	00078513          	mv	a0,a5
38000304:	02c12083          	lw	ra,44(sp)
38000308:	02812403          	lw	s0,40(sp)
3800030c:	03010113          	addi	sp,sp,48
38000310:	00008067          	ret

38000314 <partition>:
38000314:	fd010113          	addi	sp,sp,-48
38000318:	02812623          	sw	s0,44(sp)
3800031c:	03010413          	addi	s0,sp,48
38000320:	fca42e23          	sw	a0,-36(s0)
38000324:	fcb42c23          	sw	a1,-40(s0)
38000328:	0d800713          	li	a4,216
3800032c:	fd842783          	lw	a5,-40(s0)
38000330:	00279793          	slli	a5,a5,0x2
38000334:	00f707b3          	add	a5,a4,a5
38000338:	0007a783          	lw	a5,0(a5)
3800033c:	fef42223          	sw	a5,-28(s0)
38000340:	fdc42783          	lw	a5,-36(s0)
38000344:	fff78793          	addi	a5,a5,-1
38000348:	fef42623          	sw	a5,-20(s0)
3800034c:	fdc42783          	lw	a5,-36(s0)
38000350:	fef42423          	sw	a5,-24(s0)
38000354:	0900006f          	j	380003e4 <partition+0xd0>
38000358:	0d800713          	li	a4,216
3800035c:	fe842783          	lw	a5,-24(s0)
38000360:	00279793          	slli	a5,a5,0x2
38000364:	00f707b3          	add	a5,a4,a5
38000368:	0007a783          	lw	a5,0(a5)
3800036c:	fe442703          	lw	a4,-28(s0)
38000370:	06e7d463          	bge	a5,a4,380003d8 <partition+0xc4>
38000374:	fec42783          	lw	a5,-20(s0)
38000378:	00178793          	addi	a5,a5,1
3800037c:	fef42623          	sw	a5,-20(s0)
38000380:	0d800713          	li	a4,216
38000384:	fec42783          	lw	a5,-20(s0)
38000388:	00279793          	slli	a5,a5,0x2
3800038c:	00f707b3          	add	a5,a4,a5
38000390:	0007a783          	lw	a5,0(a5)
38000394:	fef42023          	sw	a5,-32(s0)
38000398:	0d800713          	li	a4,216
3800039c:	fe842783          	lw	a5,-24(s0)
380003a0:	00279793          	slli	a5,a5,0x2
380003a4:	00f707b3          	add	a5,a4,a5
380003a8:	0007a703          	lw	a4,0(a5)
380003ac:	0d800693          	li	a3,216
380003b0:	fec42783          	lw	a5,-20(s0)
380003b4:	00279793          	slli	a5,a5,0x2
380003b8:	00f687b3          	add	a5,a3,a5
380003bc:	00e7a023          	sw	a4,0(a5)
380003c0:	0d800713          	li	a4,216
380003c4:	fe842783          	lw	a5,-24(s0)
380003c8:	00279793          	slli	a5,a5,0x2
380003cc:	00f707b3          	add	a5,a4,a5
380003d0:	fe042703          	lw	a4,-32(s0)
380003d4:	00e7a023          	sw	a4,0(a5)
380003d8:	fe842783          	lw	a5,-24(s0)
380003dc:	00178793          	addi	a5,a5,1
380003e0:	fef42423          	sw	a5,-24(s0)
380003e4:	fe842703          	lw	a4,-24(s0)
380003e8:	fd842783          	lw	a5,-40(s0)
380003ec:	f6f746e3          	blt	a4,a5,38000358 <partition+0x44>
380003f0:	0d800713          	li	a4,216
380003f4:	fd842783          	lw	a5,-40(s0)
380003f8:	00279793          	slli	a5,a5,0x2
380003fc:	00f707b3          	add	a5,a4,a5
38000400:	0007a703          	lw	a4,0(a5)
38000404:	fec42783          	lw	a5,-20(s0)
38000408:	00178793          	addi	a5,a5,1
3800040c:	0d800693          	li	a3,216
38000410:	00279793          	slli	a5,a5,0x2
38000414:	00f687b3          	add	a5,a3,a5
38000418:	0007a783          	lw	a5,0(a5)
3800041c:	06f75263          	bge	a4,a5,38000480 <partition+0x16c>
38000420:	fec42783          	lw	a5,-20(s0)
38000424:	00178793          	addi	a5,a5,1
38000428:	0d800713          	li	a4,216
3800042c:	00279793          	slli	a5,a5,0x2
38000430:	00f707b3          	add	a5,a4,a5
38000434:	0007a783          	lw	a5,0(a5)
38000438:	fef42023          	sw	a5,-32(s0)
3800043c:	fec42783          	lw	a5,-20(s0)
38000440:	00178793          	addi	a5,a5,1
38000444:	0d800693          	li	a3,216
38000448:	fd842703          	lw	a4,-40(s0)
3800044c:	00271713          	slli	a4,a4,0x2
38000450:	00e68733          	add	a4,a3,a4
38000454:	00072703          	lw	a4,0(a4) # ab510000 <_esram+0x7350fac4>
38000458:	0d800693          	li	a3,216
3800045c:	00279793          	slli	a5,a5,0x2
38000460:	00f687b3          	add	a5,a3,a5
38000464:	00e7a023          	sw	a4,0(a5)
38000468:	0d800713          	li	a4,216
3800046c:	fd842783          	lw	a5,-40(s0)
38000470:	00279793          	slli	a5,a5,0x2
38000474:	00f707b3          	add	a5,a4,a5
38000478:	fe042703          	lw	a4,-32(s0)
3800047c:	00e7a023          	sw	a4,0(a5)
38000480:	fec42783          	lw	a5,-20(s0)
38000484:	00178793          	addi	a5,a5,1
38000488:	00078513          	mv	a0,a5
3800048c:	02c12403          	lw	s0,44(sp)
38000490:	03010113          	addi	sp,sp,48
38000494:	00008067          	ret

38000498 <sort>:
38000498:	fd010113          	addi	sp,sp,-48
3800049c:	02112623          	sw	ra,44(sp)
380004a0:	02812423          	sw	s0,40(sp)
380004a4:	03010413          	addi	s0,sp,48
380004a8:	fca42e23          	sw	a0,-36(s0)
380004ac:	fcb42c23          	sw	a1,-40(s0)
380004b0:	fdc42703          	lw	a4,-36(s0)
380004b4:	fd842783          	lw	a5,-40(s0)
380004b8:	02f75e63          	bge	a4,a5,380004f4 <sort+0x5c>
380004bc:	fd842583          	lw	a1,-40(s0)
380004c0:	fdc42503          	lw	a0,-36(s0)
380004c4:	e51ff0ef          	jal	ra,38000314 <partition>
380004c8:	fea42623          	sw	a0,-20(s0)
380004cc:	fec42783          	lw	a5,-20(s0)
380004d0:	fff78793          	addi	a5,a5,-1
380004d4:	00078593          	mv	a1,a5
380004d8:	fdc42503          	lw	a0,-36(s0)
380004dc:	fbdff0ef          	jal	ra,38000498 <sort>
380004e0:	fec42783          	lw	a5,-20(s0)
380004e4:	00178793          	addi	a5,a5,1
380004e8:	fd842583          	lw	a1,-40(s0)
380004ec:	00078513          	mv	a0,a5
380004f0:	fa9ff0ef          	jal	ra,38000498 <sort>
380004f4:	00000013          	nop
380004f8:	02c12083          	lw	ra,44(sp)
380004fc:	02812403          	lw	s0,40(sp)
38000500:	03010113          	addi	sp,sp,48
38000504:	00008067          	ret

38000508 <qsort>:
38000508:	ff010113          	addi	sp,sp,-16
3800050c:	00112623          	sw	ra,12(sp)
38000510:	00812423          	sw	s0,8(sp)
38000514:	01010413          	addi	s0,sp,16
38000518:	00900593          	li	a1,9
3800051c:	00000513          	li	a0,0
38000520:	f79ff0ef          	jal	ra,38000498 <sort>
38000524:	0d800793          	li	a5,216
38000528:	00078513          	mv	a0,a5
3800052c:	00c12083          	lw	ra,12(sp)
38000530:	00812403          	lw	s0,8(sp)
38000534:	01010113          	addi	sp,sp,16
38000538:	00008067          	ret

Disassembly of section .riscv.attributes:

00000000 <.riscv.attributes>:
   0:	1f41                	.2byte	0x1f41
   2:	0000                	.2byte	0x0
   4:	7200                	.2byte	0x7200
   6:	7369                	.2byte	0x7369
   8:	01007663          	bgeu	zero,a6,14 <taps+0x14>
   c:	0015                	.2byte	0x15
   e:	0000                	.2byte	0x0
  10:	1004                	.2byte	0x1004
  12:	7205                	.2byte	0x7205
  14:	3376                	.2byte	0x3376
  16:	6932                	.2byte	0x6932
  18:	7032                	.2byte	0x7032
  1a:	0030                	.2byte	0x30
  1c:	0108                	.2byte	0x108
  1e:	0b0a                	.2byte	0xb0a

Disassembly of section .comment:

00000000 <.comment>:
   0:	3a434347          	.4byte	0x3a434347
   4:	2820                	.2byte	0x2820
   6:	61653167          	.4byte	0x61653167
   a:	3739                	.2byte	0x3739
   c:	6538                	.2byte	0x6538
   e:	36363033          	.4byte	0x36363033
  12:	2029                	.2byte	0x2029
  14:	3231                	.2byte	0x3231
  16:	312e                	.2byte	0x312e
  18:	302e                	.2byte	0x302e
	...

Disassembly of section .debug_line:

00000000 <.debug_line>:
       0:	0200                	.2byte	0x200
       2:	0000                	.2byte	0x0
       4:	0005                	.2byte	0x5
       6:	0004                	.2byte	0x4
       8:	002e                	.2byte	0x2e
       a:	0000                	.2byte	0x0
       c:	0101                	.2byte	0x101
       e:	fb01                	.2byte	0xfb01
      10:	0d0e                	.2byte	0xd0e
      12:	0100                	.2byte	0x100
      14:	0101                	.2byte	0x101
      16:	0001                	.2byte	0x1
      18:	0000                	.2byte	0x0
      1a:	0001                	.2byte	0x1
      1c:	0100                	.2byte	0x100
      1e:	0101                	.2byte	0x101
      20:	021f 0000 0000      	.byte	0x1f, 0x02, 0x00, 0x00, 0x00, 0x00
      26:	0055                	.2byte	0x55
      28:	0000                	.2byte	0x0
      2a:	0102                	.2byte	0x102
      2c:	021f 020f 0064      	.byte	0x1f, 0x02, 0x0f, 0x02, 0x64, 0x00
      32:	0000                	.2byte	0x0
      34:	6401                	.2byte	0x6401
      36:	0000                	.2byte	0x0
      38:	0100                	.2byte	0x100
      3a:	0500                	.2byte	0x500
      3c:	0002                	.2byte	0x2
      3e:	0000                	.2byte	0x0
      40:	1710                	.2byte	0x1710
      42:	04090103          	lb	sp,64(s2)
      46:	0100                	.2byte	0x100
      48:	04090103          	lb	sp,64(s2)
      4c:	0100                	.2byte	0x100
      4e:	04090103          	lb	sp,64(s2)
      52:	0100                	.2byte	0x100
      54:	04090103          	lb	sp,64(s2)
      58:	0100                	.2byte	0x100
      5a:	04090103          	lb	sp,64(s2)
      5e:	0100                	.2byte	0x100
      60:	04090103          	lb	sp,64(s2)
      64:	0100                	.2byte	0x100
      66:	04090103          	lb	sp,64(s2)
      6a:	0100                	.2byte	0x100
      6c:	04090403          	lb	s0,64(s2)
      70:	0100                	.2byte	0x100
      72:	04090103          	lb	sp,64(s2)
      76:	0100                	.2byte	0x100
      78:	04090103          	lb	sp,64(s2)
      7c:	0100                	.2byte	0x100
      7e:	04090103          	lb	sp,64(s2)
      82:	0100                	.2byte	0x100
      84:	04090103          	lb	sp,64(s2)
      88:	0100                	.2byte	0x100
      8a:	04090103          	lb	sp,64(s2)
      8e:	0100                	.2byte	0x100
      90:	04090103          	lb	sp,64(s2)
      94:	0100                	.2byte	0x100
      96:	04090103          	lb	sp,64(s2)
      9a:	0100                	.2byte	0x100
      9c:	04090103          	lb	sp,64(s2)
      a0:	0100                	.2byte	0x100
      a2:	04090103          	lb	sp,64(s2)
      a6:	0100                	.2byte	0x100
      a8:	04090103          	lb	sp,64(s2)
      ac:	0100                	.2byte	0x100
      ae:	04090103          	lb	sp,64(s2)
      b2:	0100                	.2byte	0x100
      b4:	04090103          	lb	sp,64(s2)
      b8:	0100                	.2byte	0x100
      ba:	04090103          	lb	sp,64(s2)
      be:	0100                	.2byte	0x100
      c0:	04090103          	lb	sp,64(s2)
      c4:	0100                	.2byte	0x100
      c6:	04090103          	lb	sp,64(s2)
      ca:	0100                	.2byte	0x100
      cc:	04090103          	lb	sp,64(s2)
      d0:	0100                	.2byte	0x100
      d2:	04090103          	lb	sp,64(s2)
      d6:	0100                	.2byte	0x100
      d8:	04090103          	lb	sp,64(s2)
      dc:	0100                	.2byte	0x100
      de:	04090103          	lb	sp,64(s2)
      e2:	0100                	.2byte	0x100
      e4:	04090103          	lb	sp,64(s2)
      e8:	0100                	.2byte	0x100
      ea:	04090103          	lb	sp,64(s2)
      ee:	0100                	.2byte	0x100
      f0:	04090103          	lb	sp,64(s2)
      f4:	0100                	.2byte	0x100
      f6:	04090103          	lb	sp,64(s2)
      fa:	0100                	.2byte	0x100
      fc:	04090103          	lb	sp,64(s2)
     100:	0100                	.2byte	0x100
     102:	04090103          	lb	sp,64(s2)
     106:	0100                	.2byte	0x100
     108:	04090103          	lb	sp,64(s2)
     10c:	0100                	.2byte	0x100
     10e:	04090103          	lb	sp,64(s2)
     112:	0100                	.2byte	0x100
     114:	04090103          	lb	sp,64(s2)
     118:	0100                	.2byte	0x100
     11a:	04090103          	lb	sp,64(s2)
     11e:	0100                	.2byte	0x100
     120:	04090103          	lb	sp,64(s2)
     124:	0100                	.2byte	0x100
     126:	04090103          	lb	sp,64(s2)
     12a:	0100                	.2byte	0x100
     12c:	04090103          	lb	sp,64(s2)
     130:	0100                	.2byte	0x100
     132:	04090103          	lb	sp,64(s2)
     136:	0100                	.2byte	0x100
     138:	04090103          	lb	sp,64(s2)
     13c:	0100                	.2byte	0x100
     13e:	04090103          	lb	sp,64(s2)
     142:	0100                	.2byte	0x100
     144:	04090503          	lb	a0,64(s2)
     148:	0100                	.2byte	0x100
     14a:	04090103          	lb	sp,64(s2)
     14e:	0100                	.2byte	0x100
     150:	08090103          	lb	sp,128(s2)
     154:	0100                	.2byte	0x100
     156:	04090303          	lb	t1,64(s2)
     15a:	0100                	.2byte	0x100
     15c:	08090103          	lb	sp,128(s2)
     160:	0100                	.2byte	0x100
     162:	08090103          	lb	sp,128(s2)
     166:	0100                	.2byte	0x100
     168:	08090203          	lb	tp,128(s2)
     16c:	0100                	.2byte	0x100
     16e:	04090103          	lb	sp,64(s2)
     172:	0100                	.2byte	0x100
     174:	04090103          	lb	sp,64(s2)
     178:	0100                	.2byte	0x100
     17a:	04090103          	lb	sp,64(s2)
     17e:	0100                	.2byte	0x100
     180:	04090103          	lb	sp,64(s2)
     184:	0100                	.2byte	0x100
     186:	04090103          	lb	sp,64(s2)
     18a:	0100                	.2byte	0x100
     18c:	04090403          	lb	s0,64(s2)
     190:	0100                	.2byte	0x100
     192:	04090103          	lb	sp,64(s2)
     196:	0100                	.2byte	0x100
     198:	04090103          	lb	sp,64(s2)
     19c:	0100                	.2byte	0x100
     19e:	08090203          	lb	tp,128(s2)
     1a2:	0100                	.2byte	0x100
     1a4:	04090103          	lb	sp,64(s2)
     1a8:	0100                	.2byte	0x100
     1aa:	04090103          	lb	sp,64(s2)
     1ae:	0100                	.2byte	0x100
     1b0:	04090103          	lb	sp,64(s2)
     1b4:	0100                	.2byte	0x100
     1b6:	04090103          	lb	sp,64(s2)
     1ba:	0100                	.2byte	0x100
     1bc:	04090103          	lb	sp,64(s2)
     1c0:	0100                	.2byte	0x100
     1c2:	04090403          	lb	s0,64(s2)
     1c6:	0100                	.2byte	0x100
     1c8:	04090103          	lb	sp,64(s2)
     1cc:	0100                	.2byte	0x100
     1ce:	04090203          	lb	tp,64(s2)
     1d2:	0100                	.2byte	0x100
     1d4:	04090103          	lb	sp,64(s2)
     1d8:	0100                	.2byte	0x100
     1da:	04090103          	lb	sp,64(s2)
     1de:	0100                	.2byte	0x100
     1e0:	04090203          	lb	tp,64(s2)
     1e4:	0100                	.2byte	0x100
     1e6:	04090403          	lb	s0,64(s2)
     1ea:	0100                	.2byte	0x100
     1ec:	08090103          	lb	sp,128(s2)
     1f0:	0100                	.2byte	0x100
     1f2:	04090603          	lb	a2,64(s2)
     1f6:	0100                	.2byte	0x100
     1f8:	04090203          	lb	tp,64(s2)
     1fc:	0100                	.2byte	0x100
     1fe:	0409                	.2byte	0x409
     200:	0000                	.2byte	0x0
     202:	0101                	.2byte	0x101
     204:	009a                	.2byte	0x9a
     206:	0000                	.2byte	0x0
     208:	0005                	.2byte	0x5
     20a:	0004                	.2byte	0x4
     20c:	0038                	.2byte	0x38
     20e:	0000                	.2byte	0x0
     210:	0101                	.2byte	0x101
     212:	fb01                	.2byte	0xfb01
     214:	0d0e                	.2byte	0xd0e
     216:	0100                	.2byte	0x100
     218:	0101                	.2byte	0x101
     21a:	0001                	.2byte	0x1
     21c:	0000                	.2byte	0x0
     21e:	0001                	.2byte	0x1
     220:	0100                	.2byte	0x100
     222:	0101                	.2byte	0x101
     224:	021f 0000 0000      	.byte	0x1f, 0x02, 0x00, 0x00, 0x00, 0x00
     22a:	0055                	.2byte	0x55
     22c:	0000                	.2byte	0x0
     22e:	0102                	.2byte	0x102
     230:	021f 040f 007e      	.byte	0x1f, 0x02, 0x0f, 0x04, 0x7e, 0x00
     236:	0000                	.2byte	0x0
     238:	8401                	.2byte	0x8401
     23a:	0000                	.2byte	0x0
     23c:	0100                	.2byte	0x100
     23e:	008d                	.2byte	0x8d
     240:	0000                	.2byte	0x0
     242:	7e01                	.2byte	0x7e01
     244:	0000                	.2byte	0x0
     246:	0100                	.2byte	0x100
     248:	0105                	.2byte	0x105
     24a:	0500                	.2byte	0x500
     24c:	4402                	.2byte	0x4402
     24e:	0001                	.2byte	0x1
     250:	0310                	.2byte	0x310
     252:	010e                	.2byte	0x10e
     254:	0c090b03          	lb	s6,192(s2)
     258:	0100                	.2byte	0x100
     25a:	10090303          	lb	t1,256(s2)
     25e:	0100                	.2byte	0x100
     260:	0c090403          	lb	s0,192(s2)
     264:	0100                	.2byte	0x100
     266:	0204                	.2byte	0x204
     268:	10097d03          	.4byte	0x10097d03
     26c:	0100                	.2byte	0x100
     26e:	0205                	.2byte	0x205
     270:	10090103          	lb	sp,256(s2)
     274:	0100                	.2byte	0x100
     276:	0105                	.2byte	0x105
     278:	08090103          	lb	sp,128(s2)
     27c:	0100                	.2byte	0x100
     27e:	0304                	.2byte	0x304
     280:	10097803          	.4byte	0x10097803
     284:	0100                	.2byte	0x100
     286:	0505                	.2byte	0x505
     288:	10090403          	lb	s0,256(s2)
     28c:	0100                	.2byte	0x100
     28e:	08090f03          	lb	t5,128(s2)
     292:	0100                	.2byte	0x100
     294:	0105                	.2byte	0x105
     296:	04090203          	lb	tp,64(s2)
     29a:	0100                	.2byte	0x100
     29c:	1009                	.2byte	0x1009
     29e:	0000                	.2byte	0x0
     2a0:	0101                	.2byte	0x101
     2a2:	0631                	.2byte	0x631
     2a4:	0000                	.2byte	0x0
     2a6:	0005                	.2byte	0x5
     2a8:	0004                	.2byte	0x4
     2aa:	0041                	.2byte	0x41
     2ac:	0000                	.2byte	0x0
     2ae:	0101                	.2byte	0x101
     2b0:	fb01                	.2byte	0xfb01
     2b2:	0d0e                	.2byte	0xd0e
     2b4:	0100                	.2byte	0x100
     2b6:	0101                	.2byte	0x101
     2b8:	0001                	.2byte	0x1
     2ba:	0000                	.2byte	0x0
     2bc:	0001                	.2byte	0x1
     2be:	0100                	.2byte	0x100
     2c0:	0101                	.2byte	0x101
     2c2:	031f 0000 0000      	.byte	0x1f, 0x03, 0x00, 0x00, 0x00, 0x00
     2c8:	0055                	.2byte	0x55
     2ca:	0000                	.2byte	0x0
     2cc:	009f 0000 0102      	.byte	0x9f, 0x00, 0x00, 0x00, 0x02, 0x01
     2d2:	021f 050f 0097      	.byte	0x1f, 0x02, 0x0f, 0x05, 0x97, 0x00
     2d8:	0000                	.2byte	0x0
     2da:	8400                	.2byte	0x8400
     2dc:	0000                	.2byte	0x0
     2de:	0100                	.2byte	0x100
     2e0:	00000097          	auipc	ra,0x0
     2e4:	d500                	.2byte	0xd500
     2e6:	0000                	.2byte	0x0
     2e8:	0000                	.2byte	0x0
     2ea:	00dd                	.2byte	0xdd
     2ec:	0000                	.2byte	0x0
     2ee:	0502                	.2byte	0x502
     2f0:	0001                	.2byte	0x1
     2f2:	0205                	.2byte	0x205
     2f4:	01d0                	.2byte	0x1d0
     2f6:	1000                	.2byte	0x1000
     2f8:	03010e03          	lb	t3,48(sp)
     2fc:	000c090b          	.4byte	0xc090b
     300:	0301                	.2byte	0x301
     302:	00100903          	lb	s2,1(zero) # 1 <taps+0x1>
     306:	0301                	.2byte	0x301
     308:	0904                	.2byte	0x904
     30a:	000c                	.2byte	0xc
     30c:	0901                	.2byte	0x901
     30e:	0010                	.2byte	0x10
     310:	0100                	.2byte	0x100
     312:	0401                	.2byte	0x401
     314:	0502                	.2byte	0x502
     316:	0001                	.2byte	0x1
     318:	0205                	.2byte	0x205
     31a:	1358                	.2byte	0x1358
     31c:	1000                	.2byte	0x1000
     31e:	0518                	.2byte	0x518
     320:	030a                	.2byte	0x30a
     322:	0901                	.2byte	0x901
     324:	0010                	.2byte	0x10
     326:	0501                	.2byte	0x501
     328:	000e                	.2byte	0xe
     32a:	0402                	.2byte	0x402
     32c:	0301                	.2byte	0x301
     32e:	0900                	.2byte	0x900
     330:	0004                	.2byte	0x4
     332:	0501                	.2byte	0x501
     334:	0402000b          	.4byte	0x402000b
     338:	0301                	.2byte	0x301
     33a:	0900                	.2byte	0x900
     33c:	000c                	.2byte	0xc
     33e:	0501                	.2byte	0x501
     340:	0306                	.2byte	0x306
     342:	0901                	.2byte	0x901
     344:	0008                	.2byte	0x8
     346:	0501                	.2byte	0x501
     348:	09000327          	.4byte	0x9000327
     34c:	0008                	.2byte	0x8
     34e:	0501                	.2byte	0x501
     350:	0301                	.2byte	0x301
     352:	0901                	.2byte	0x901
     354:	0008                	.2byte	0x8
     356:	0301                	.2byte	0x301
     358:	00100903          	lb	s2,1(zero) # 1 <taps+0x1>
     35c:	0501                	.2byte	0x501
     35e:	0305                	.2byte	0x305
     360:	0901                	.2byte	0x901
     362:	0018                	.2byte	0x18
     364:	0501                	.2byte	0x501
     366:	09010303          	lb	t1,144(sp)
     36a:	000c                	.2byte	0xc
     36c:	0501                	.2byte	0x501
     36e:	030a                	.2byte	0x30a
     370:	00080903          	lb	s2,0(a6)
     374:	0501                	.2byte	0x501
     376:	000e                	.2byte	0xe
     378:	0402                	.2byte	0x402
     37a:	0301                	.2byte	0x301
     37c:	0900                	.2byte	0x900
     37e:	0004                	.2byte	0x4
     380:	0501                	.2byte	0x501
     382:	0402000b          	.4byte	0x402000b
     386:	0301                	.2byte	0x301
     388:	0900                	.2byte	0x900
     38a:	000c                	.2byte	0xc
     38c:	0501                	.2byte	0x501
     38e:	0306                	.2byte	0x306
     390:	0901                	.2byte	0x901
     392:	0008                	.2byte	0x8
     394:	0501                	.2byte	0x501
     396:	09000327          	.4byte	0x9000327
     39a:	0008                	.2byte	0x8
     39c:	0501                	.2byte	0x501
     39e:	0301                	.2byte	0x301
     3a0:	0901                	.2byte	0x901
     3a2:	0008                	.2byte	0x8
     3a4:	0301                	.2byte	0x301
     3a6:	00140903          	lb	s2,1(s0)
     3aa:	0501                	.2byte	0x501
     3ac:	0901030b          	.4byte	0x901030b
     3b0:	0014                	.2byte	0x14
     3b2:	0501                	.2byte	0x501
     3b4:	031c                	.2byte	0x31c
     3b6:	0901                	.2byte	0x901
     3b8:	0004                	.2byte	0x4
     3ba:	0501                	.2byte	0x501
     3bc:	0309                	.2byte	0x309
     3be:	0900                	.2byte	0x900
     3c0:	000c                	.2byte	0xc
     3c2:	0501                	.2byte	0x501
     3c4:	030c                	.2byte	0x30c
     3c6:	097f                	.2byte	0x97f
     3c8:	000c                	.2byte	0xc
     3ca:	0501                	.2byte	0x501
     3cc:	0301                	.2byte	0x301
     3ce:	0902                	.2byte	0x902
     3d0:	000c                	.2byte	0xc
     3d2:	0301                	.2byte	0x301
     3d4:	0904                	.2byte	0x904
     3d6:	0018                	.2byte	0x18
     3d8:	0501                	.2byte	0x501
     3da:	030c                	.2byte	0x30c
     3dc:	0902                	.2byte	0x902
     3de:	000c                	.2byte	0xc
     3e0:	0501                	.2byte	0x501
     3e2:	032c                	.2byte	0x32c
     3e4:	0900                	.2byte	0x900
     3e6:	000c                	.2byte	0xc
     3e8:	0501                	.2byte	0x501
     3ea:	09000307          	.4byte	0x9000307
     3ee:	0004                	.2byte	0x4
     3f0:	0501                	.2byte	0x501
     3f2:	04020043          	.4byte	0x4020043
     3f6:	0301                	.2byte	0x301
     3f8:	0900                	.2byte	0x900
     3fa:	0004                	.2byte	0x4
     3fc:	0501                	.2byte	0x501
     3fe:	04020063          	beqz	tp,43e <_ebss+0x2a6>
     402:	0301                	.2byte	0x301
     404:	0900                	.2byte	0x900
     406:	000c                	.2byte	0xc
     408:	0501                	.2byte	0x501
     40a:	003c                	.2byte	0x3c
     40c:	0402                	.2byte	0x402
     40e:	0301                	.2byte	0x301
     410:	0900                	.2byte	0x900
     412:	0004                	.2byte	0x4
     414:	0501                	.2byte	0x501
     416:	0311                	.2byte	0x311
     418:	0901                	.2byte	0x901
     41a:	0004                	.2byte	0x4
     41c:	0501                	.2byte	0x501
     41e:	0309                	.2byte	0x309
     420:	0900                	.2byte	0x900
     422:	0004                	.2byte	0x4
     424:	0501                	.2byte	0x501
     426:	000d                	.2byte	0xd
     428:	0402                	.2byte	0x402
     42a:	09010303          	lb	t1,144(sp)
     42e:	0004                	.2byte	0x4
     430:	0501                	.2byte	0x501
     432:	0020                	.2byte	0x20
     434:	0402                	.2byte	0x402
     436:	097f0303          	lb	t1,151(t5)
     43a:	0004                	.2byte	0x4
     43c:	0501                	.2byte	0x501
     43e:	001a                	.2byte	0x1a
     440:	0402                	.2byte	0x402
     442:	0301                	.2byte	0x301
     444:	0900                	.2byte	0x900
     446:	000c                	.2byte	0xc
     448:	0501                	.2byte	0x501
     44a:	0310                	.2byte	0x310
     44c:	00080903          	lb	s2,0(a6)
     450:	0501                	.2byte	0x501
     452:	030d                	.2byte	0x30d
     454:	0900                	.2byte	0x900
     456:	0008                	.2byte	0x8
     458:	0501                	.2byte	0x501
     45a:	030c                	.2byte	0x30c
     45c:	00040903          	lb	s2,0(s0)
     460:	0501                	.2byte	0x501
     462:	0301                	.2byte	0x301
     464:	0901                	.2byte	0x901
     466:	0004                	.2byte	0x4
     468:	0301                	.2byte	0x301
     46a:	00100903          	lb	s2,1(zero) # 1 <taps+0x1>
     46e:	0501                	.2byte	0x501
     470:	030c                	.2byte	0x30c
     472:	0902                	.2byte	0x902
     474:	000c                	.2byte	0xc
     476:	0501                	.2byte	0x501
     478:	032c                	.2byte	0x32c
     47a:	0900                	.2byte	0x900
     47c:	000c                	.2byte	0xc
     47e:	0501                	.2byte	0x501
     480:	09000307          	.4byte	0x9000307
     484:	0004                	.2byte	0x4
     486:	0501                	.2byte	0x501
     488:	04020043          	.4byte	0x4020043
     48c:	0301                	.2byte	0x301
     48e:	0900                	.2byte	0x900
     490:	0004                	.2byte	0x4
     492:	0501                	.2byte	0x501
     494:	04020063          	beqz	tp,4d4 <_ebss+0x33c>
     498:	0301                	.2byte	0x301
     49a:	0900                	.2byte	0x900
     49c:	000c                	.2byte	0xc
     49e:	0501                	.2byte	0x501
     4a0:	003c                	.2byte	0x3c
     4a2:	0402                	.2byte	0x402
     4a4:	0301                	.2byte	0x301
     4a6:	0900                	.2byte	0x900
     4a8:	0004                	.2byte	0x4
     4aa:	0501                	.2byte	0x501
     4ac:	0311                	.2byte	0x311
     4ae:	0901                	.2byte	0x901
     4b0:	0004                	.2byte	0x4
     4b2:	0501                	.2byte	0x501
     4b4:	0309                	.2byte	0x309
     4b6:	0900                	.2byte	0x900
     4b8:	0004                	.2byte	0x4
     4ba:	0501                	.2byte	0x501
     4bc:	000d                	.2byte	0xd
     4be:	0402                	.2byte	0x402
     4c0:	09010303          	lb	t1,144(sp)
     4c4:	0004                	.2byte	0x4
     4c6:	0501                	.2byte	0x501
     4c8:	0020                	.2byte	0x20
     4ca:	0402                	.2byte	0x402
     4cc:	097f0303          	lb	t1,151(t5)
     4d0:	0004                	.2byte	0x4
     4d2:	0501                	.2byte	0x501
     4d4:	001a                	.2byte	0x1a
     4d6:	0402                	.2byte	0x402
     4d8:	0301                	.2byte	0x301
     4da:	0900                	.2byte	0x900
     4dc:	000c                	.2byte	0xc
     4de:	0501                	.2byte	0x501
     4e0:	0310                	.2byte	0x310
     4e2:	00080903          	lb	s2,0(a6)
     4e6:	0501                	.2byte	0x501
     4e8:	030d                	.2byte	0x30d
     4ea:	0900                	.2byte	0x900
     4ec:	0008                	.2byte	0x8
     4ee:	0501                	.2byte	0x501
     4f0:	030c                	.2byte	0x30c
     4f2:	00040903          	lb	s2,0(s0)
     4f6:	0501                	.2byte	0x501
     4f8:	0301                	.2byte	0x301
     4fa:	0901                	.2byte	0x901
     4fc:	0004                	.2byte	0x4
     4fe:	0901                	.2byte	0x901
     500:	0010                	.2byte	0x10
     502:	0100                	.2byte	0x100
     504:	0401                	.2byte	0x401
     506:	0502                	.2byte	0x502
     508:	003d                	.2byte	0x3d
     50a:	0205                	.2byte	0x205
     50c:	0024                	.2byte	0x24
     50e:	3800                	.2byte	0x3800
     510:	05013803          	.4byte	0x5013803
     514:	030a                	.2byte	0x30a
     516:	0901                	.2byte	0x901
     518:	000c                	.2byte	0xc
     51a:	0501                	.2byte	0x501
     51c:	0302                	.2byte	0x302
     51e:	0900                	.2byte	0x900
     520:	0004                	.2byte	0x4
     522:	0501                	.2byte	0x501
     524:	0012                	.2byte	0x12
     526:	0402                	.2byte	0x402
     528:	09010303          	lb	t1,144(sp)
     52c:	0004                	.2byte	0x4
     52e:	0501                	.2byte	0x501
     530:	04020013          	addi	zero,tp,64 # 40 <inputsignal+0x14>
     534:	09010303          	lb	t1,144(sp)
     538:	0014                	.2byte	0x14
     53a:	0501                	.2byte	0x501
     53c:	0016                	.2byte	0x16
     53e:	0402                	.2byte	0x402
     540:	097e0303          	lb	t1,151(t3)
     544:	0014                	.2byte	0x14
     546:	0501                	.2byte	0x501
     548:	0010                	.2byte	0x10
     54a:	0402                	.2byte	0x402
     54c:	0301                	.2byte	0x301
     54e:	0900                	.2byte	0x900
     550:	000c                	.2byte	0xc
     552:	0501                	.2byte	0x501
     554:	0301                	.2byte	0x301
     556:	0904                	.2byte	0x904
     558:	000c                	.2byte	0xc
     55a:	0501                	.2byte	0x501
     55c:	034c                	.2byte	0x34c
     55e:	0902                	.2byte	0x902
     560:	0014                	.2byte	0x14
     562:	0501                	.2byte	0x501
     564:	030a                	.2byte	0x30a
     566:	0901                	.2byte	0x901
     568:	0014                	.2byte	0x14
     56a:	0501                	.2byte	0x501
     56c:	0302                	.2byte	0x302
     56e:	0900                	.2byte	0x900
     570:	0008                	.2byte	0x8
     572:	0501                	.2byte	0x501
     574:	0021                	.2byte	0x21
     576:	0402                	.2byte	0x402
     578:	09010303          	lb	t1,144(sp)
     57c:	0004                	.2byte	0x4
     57e:	0501                	.2byte	0x501
     580:	001f 0402 0303      	.byte	0x1f, 0x00, 0x02, 0x04, 0x03, 0x03
     586:	0900                	.2byte	0x900
     588:	0008                	.2byte	0x8
     58a:	0501                	.2byte	0x501
     58c:	0012                	.2byte	0x12
     58e:	0402                	.2byte	0x402
     590:	09000303          	lb	t1,144(zero) # 90 <A+0x38>
     594:	0010                	.2byte	0x10
     596:	0501                	.2byte	0x501
     598:	0019                	.2byte	0x19
     59a:	0402                	.2byte	0x402
     59c:	097f0303          	lb	t1,151(t5)
     5a0:	0014                	.2byte	0x14
     5a2:	0501                	.2byte	0x501
     5a4:	0014                	.2byte	0x14
     5a6:	0402                	.2byte	0x402
     5a8:	0301                	.2byte	0x301
     5aa:	0900                	.2byte	0x900
     5ac:	000c                	.2byte	0xc
     5ae:	0501                	.2byte	0x501
     5b0:	0311                	.2byte	0x311
     5b2:	00080903          	lb	s2,0(a6)
     5b6:	0501                	.2byte	0x501
     5b8:	0306                	.2byte	0x306
     5ba:	0902                	.2byte	0x902
     5bc:	000c                	.2byte	0xc
     5be:	0501                	.2byte	0x501
     5c0:	030a                	.2byte	0x30a
     5c2:	0901                	.2byte	0x901
     5c4:	0004                	.2byte	0x4
     5c6:	0501                	.2byte	0x501
     5c8:	0302                	.2byte	0x302
     5ca:	0900                	.2byte	0x900
     5cc:	0004                	.2byte	0x4
     5ce:	0501                	.2byte	0x501
     5d0:	04020017          	auipc	zero,0x4020
     5d4:	09010303          	lb	t1,144(sp)
     5d8:	0004                	.2byte	0x4
     5da:	0501                	.2byte	0x501
     5dc:	0026                	.2byte	0x26
     5de:	0402                	.2byte	0x402
     5e0:	09000303          	lb	t1,144(zero) # 90 <A+0x38>
     5e4:	0014                	.2byte	0x14
     5e6:	0501                	.2byte	0x501
     5e8:	001a                	.2byte	0x1a
     5ea:	0402                	.2byte	0x402
     5ec:	09000303          	lb	t1,144(zero) # 90 <A+0x38>
     5f0:	0014                	.2byte	0x14
     5f2:	0501                	.2byte	0x501
     5f4:	0010                	.2byte	0x10
     5f6:	0402                	.2byte	0x402
     5f8:	09000303          	lb	t1,144(zero) # 90 <A+0x38>
     5fc:	0014                	.2byte	0x14
     5fe:	0501                	.2byte	0x501
     600:	0016                	.2byte	0x16
     602:	0402                	.2byte	0x402
     604:	097f0303          	lb	t1,151(t5)
     608:	000c                	.2byte	0xc
     60a:	0501                	.2byte	0x501
     60c:	0010                	.2byte	0x10
     60e:	0402                	.2byte	0x402
     610:	0301                	.2byte	0x301
     612:	0900                	.2byte	0x900
     614:	000c                	.2byte	0xc
     616:	0501                	.2byte	0x501
     618:	0309                	.2byte	0x309
     61a:	000c0903          	lb	s2,0(s8)
     61e:	0501                	.2byte	0x501
     620:	0301                	.2byte	0x301
     622:	0901                	.2byte	0x901
     624:	0004                	.2byte	0x4
     626:	0501                	.2byte	0x501
     628:	0338                	.2byte	0x338
     62a:	0902                	.2byte	0x902
     62c:	0014                	.2byte	0x14
     62e:	0501                	.2byte	0x501
     630:	0302                	.2byte	0x302
     632:	0901                	.2byte	0x901
     634:	0010                	.2byte	0x10
     636:	0501                	.2byte	0x501
     638:	030a                	.2byte	0x30a
     63a:	0901                	.2byte	0x901
     63c:	0004                	.2byte	0x4
     63e:	0501                	.2byte	0x501
     640:	0302                	.2byte	0x302
     642:	0900                	.2byte	0x900
     644:	0004                	.2byte	0x4
     646:	0501                	.2byte	0x501
     648:	0015                	.2byte	0x15
     64a:	0402                	.2byte	0x402
     64c:	09010303          	lb	t1,144(sp)
     650:	0004                	.2byte	0x4
     652:	0501                	.2byte	0x501
     654:	04020013          	addi	zero,tp,64 # 40 <inputsignal+0x14>
     658:	09000303          	lb	t1,144(zero) # 90 <A+0x38>
     65c:	0020                	.2byte	0x20
     65e:	0501                	.2byte	0x501
     660:	0016                	.2byte	0x16
     662:	0402                	.2byte	0x402
     664:	097f0303          	lb	t1,151(t5)
     668:	0014                	.2byte	0x14
     66a:	0501                	.2byte	0x501
     66c:	0010                	.2byte	0x10
     66e:	0402                	.2byte	0x402
     670:	0301                	.2byte	0x301
     672:	0900                	.2byte	0x900
     674:	000c                	.2byte	0xc
     676:	0501                	.2byte	0x501
     678:	0309                	.2byte	0x309
     67a:	000c0903          	lb	s2,0(s8)
     67e:	0501                	.2byte	0x501
     680:	0301                	.2byte	0x301
     682:	0901                	.2byte	0x901
     684:	0004                	.2byte	0x4
     686:	0301                	.2byte	0x301
     688:	0904                	.2byte	0x904
     68a:	0014                	.2byte	0x14
     68c:	0501                	.2byte	0x501
     68e:	0306                	.2byte	0x306
     690:	0901                	.2byte	0x901
     692:	0010                	.2byte	0x10
     694:	0501                	.2byte	0x501
     696:	0905030f          	.4byte	0x905030f
     69a:	0004                	.2byte	0x4
     69c:	0501                	.2byte	0x501
     69e:	0308                	.2byte	0x308
     6a0:	0901                	.2byte	0x901
     6a2:	0004                	.2byte	0x4
     6a4:	0501                	.2byte	0x501
     6a6:	0302                	.2byte	0x302
     6a8:	0900                	.2byte	0x900
     6aa:	0004                	.2byte	0x4
     6ac:	0501                	.2byte	0x501
     6ae:	0309                	.2byte	0x309
     6b0:	0901                	.2byte	0x901
     6b2:	0004                	.2byte	0x4
     6b4:	0501                	.2byte	0x501
     6b6:	09000303          	lb	t1,144(zero) # 90 <A+0x38>
     6ba:	0004                	.2byte	0x4
     6bc:	0501                	.2byte	0x501
     6be:	0308                	.2byte	0x308
     6c0:	0901                	.2byte	0x901
     6c2:	0004                	.2byte	0x4
     6c4:	0501                	.2byte	0x501
     6c6:	030a                	.2byte	0x30a
     6c8:	0901                	.2byte	0x901
     6ca:	0004                	.2byte	0x4
     6cc:	0501                	.2byte	0x501
     6ce:	0304                	.2byte	0x304
     6d0:	0900                	.2byte	0x900
     6d2:	0004                	.2byte	0x4
     6d4:	0501                	.2byte	0x501
     6d6:	0010                	.2byte	0x10
     6d8:	0402                	.2byte	0x402
     6da:	09010303          	lb	t1,144(sp)
     6de:	0004                	.2byte	0x4
     6e0:	0501                	.2byte	0x501
     6e2:	0014                	.2byte	0x14
     6e4:	0402                	.2byte	0x402
     6e6:	09000303          	lb	t1,144(zero) # 90 <A+0x38>
     6ea:	0008                	.2byte	0x8
     6ec:	0501                	.2byte	0x501
     6ee:	000d                	.2byte	0xd
     6f0:	0402                	.2byte	0x402
     6f2:	09000303          	lb	t1,144(zero) # 90 <A+0x38>
     6f6:	0008                	.2byte	0x8
     6f8:	0501                	.2byte	0x501
     6fa:	001f 0402 0303      	.byte	0x1f, 0x00, 0x02, 0x04, 0x03, 0x03
     700:	0900                	.2byte	0x900
     702:	0010                	.2byte	0x10
     704:	0501                	.2byte	0x501
     706:	04020023          	sb	zero,64(tp) # 40 <inputsignal+0x14>
     70a:	09000303          	lb	t1,144(zero) # 90 <A+0x38>
     70e:	0008                	.2byte	0x8
     710:	0501                	.2byte	0x501
     712:	001c                	.2byte	0x1c
     714:	0402                	.2byte	0x402
     716:	09000303          	lb	t1,144(zero) # 90 <A+0x38>
     71a:	0008                	.2byte	0x8
     71c:	0501                	.2byte	0x501
     71e:	0019                	.2byte	0x19
     720:	0402                	.2byte	0x402
     722:	09000303          	lb	t1,144(zero) # 90 <A+0x38>
     726:	0010                	.2byte	0x10
     728:	0501                	.2byte	0x501
     72a:	0009                	.2byte	0x9
     72c:	0402                	.2byte	0x402
     72e:	09000303          	lb	t1,144(zero) # 90 <A+0x38>
     732:	0014                	.2byte	0x14
     734:	0501                	.2byte	0x501
     736:	04020013          	addi	zero,tp,64 # 40 <inputsignal+0x14>
     73a:	097f0303          	lb	t1,151(t5)
     73e:	000c                	.2byte	0xc
     740:	0501                	.2byte	0x501
     742:	0402000f          	.4byte	0x402000f
     746:	0301                	.2byte	0x301
     748:	0900                	.2byte	0x900
     74a:	000c                	.2byte	0xc
     74c:	0501                	.2byte	0x501
     74e:	000d                	.2byte	0xd
     750:	0402                	.2byte	0x402
     752:	0302                	.2byte	0x302
     754:	0902                	.2byte	0x902
     756:	000c                	.2byte	0xc
     758:	0501                	.2byte	0x501
     75a:	0011                	.2byte	0x11
     75c:	0402                	.2byte	0x402
     75e:	0302                	.2byte	0x302
     760:	0900                	.2byte	0x900
     762:	0008                	.2byte	0x8
     764:	0501                	.2byte	0x501
     766:	0016                	.2byte	0x16
     768:	0402                	.2byte	0x402
     76a:	0302                	.2byte	0x302
     76c:	0900                	.2byte	0x900
     76e:	0008                	.2byte	0x8
     770:	0501                	.2byte	0x501
     772:	04020013          	addi	zero,tp,64 # 40 <inputsignal+0x14>
     776:	0302                	.2byte	0x302
     778:	097c                	.2byte	0x97c
     77a:	0014                	.2byte	0x14
     77c:	0501                	.2byte	0x501
     77e:	000e                	.2byte	0xe
     780:	0402                	.2byte	0x402
     782:	0301                	.2byte	0x301
     784:	0900                	.2byte	0x900
     786:	000c                	.2byte	0xc
     788:	0501                	.2byte	0x501
     78a:	0012                	.2byte	0x12
     78c:	0402                	.2byte	0x402
     78e:	0302                	.2byte	0x302
     790:	097f                	.2byte	0x97f
     792:	000c                	.2byte	0xc
     794:	0501                	.2byte	0x501
     796:	000d                	.2byte	0xd
     798:	0402                	.2byte	0x402
     79a:	0301                	.2byte	0x301
     79c:	0900                	.2byte	0x900
     79e:	000c                	.2byte	0xc
     7a0:	0501                	.2byte	0x501
     7a2:	0309                	.2byte	0x309
     7a4:	0908                	.2byte	0x908
     7a6:	000c                	.2byte	0xc
     7a8:	0501                	.2byte	0x501
     7aa:	0301                	.2byte	0x301
     7ac:	0901                	.2byte	0x901
     7ae:	0004                	.2byte	0x4
     7b0:	0501                	.2byte	0x501
     7b2:	0903034b          	.4byte	0x903034b
     7b6:	0014                	.2byte	0x14
     7b8:	0501                	.2byte	0x501
     7ba:	0306                	.2byte	0x306
     7bc:	0901                	.2byte	0x901
     7be:	0014                	.2byte	0x14
     7c0:	0301                	.2byte	0x301
     7c2:	0901                	.2byte	0x901
     7c4:	0018                	.2byte	0x18
     7c6:	0501                	.2byte	0x501
     7c8:	0308                	.2byte	0x308
     7ca:	0902                	.2byte	0x902
     7cc:	000c                	.2byte	0xc
     7ce:	0501                	.2byte	0x501
     7d0:	0302                	.2byte	0x302
     7d2:	0900                	.2byte	0x900
     7d4:	0008                	.2byte	0x8
     7d6:	0501                	.2byte	0x501
     7d8:	0309                	.2byte	0x309
     7da:	0901                	.2byte	0x901
     7dc:	0004                	.2byte	0x4
     7de:	0501                	.2byte	0x501
     7e0:	0305                	.2byte	0x305
     7e2:	0900                	.2byte	0x900
     7e4:	0014                	.2byte	0x14
     7e6:	0501                	.2byte	0x501
     7e8:	0306                	.2byte	0x306
     7ea:	0901                	.2byte	0x901
     7ec:	0008                	.2byte	0x8
     7ee:	0501                	.2byte	0x501
     7f0:	0309                	.2byte	0x309
     7f2:	0901                	.2byte	0x901
     7f4:	000c                	.2byte	0xc
     7f6:	0501                	.2byte	0x501
     7f8:	0310                	.2byte	0x310
     7fa:	0901                	.2byte	0x901
     7fc:	0018                	.2byte	0x18
     7fe:	0501                	.2byte	0x501
     800:	0900030b          	.4byte	0x900030b
     804:	0014                	.2byte	0x14
     806:	0301                	.2byte	0x301
     808:	0901                	.2byte	0x901
     80a:	0014                	.2byte	0x14
     80c:	0501                	.2byte	0x501
     80e:	0014                	.2byte	0x14
     810:	0402                	.2byte	0x402
     812:	0302                	.2byte	0x302
     814:	0018097b          	.4byte	0x18097b
     818:	0501                	.2byte	0x501
     81a:	0402000f          	.4byte	0x402000f
     81e:	0301                	.2byte	0x301
     820:	0900                	.2byte	0x900
     822:	000c                	.2byte	0xc
     824:	0501                	.2byte	0x501
     826:	0308                	.2byte	0x308
     828:	0908                	.2byte	0x908
     82a:	000c                	.2byte	0xc
     82c:	0501                	.2byte	0x501
     82e:	0314                	.2byte	0x314
     830:	0900                	.2byte	0x900
     832:	0014                	.2byte	0x14
     834:	0501                	.2byte	0x501
     836:	0312                	.2byte	0x312
     838:	0900                	.2byte	0x900
     83a:	0008                	.2byte	0x8
     83c:	0501                	.2byte	0x501
     83e:	0304                	.2byte	0x304
     840:	0900                	.2byte	0x900
     842:	0010                	.2byte	0x10
     844:	0501                	.2byte	0x501
     846:	0901030f          	.4byte	0x901030f
     84a:	0004                	.2byte	0x4
     84c:	0501                	.2byte	0x501
     84e:	0308                	.2byte	0x308
     850:	0900                	.2byte	0x900
     852:	0008                	.2byte	0x8
     854:	0301                	.2byte	0x301
     856:	0901                	.2byte	0x901
     858:	0014                	.2byte	0x14
     85a:	0501                	.2byte	0x501
     85c:	0311                	.2byte	0x311
     85e:	0900                	.2byte	0x900
     860:	0008                	.2byte	0x8
     862:	0501                	.2byte	0x501
     864:	030c                	.2byte	0x30c
     866:	0900                	.2byte	0x900
     868:	0014                	.2byte	0x14
     86a:	0501                	.2byte	0x501
     86c:	0901030b          	.4byte	0x901030b
     870:	0010                	.2byte	0x10
     872:	0501                	.2byte	0x501
     874:	030a                	.2byte	0x30a
     876:	0902                	.2byte	0x902
     878:	0018                	.2byte	0x18
     87a:	0501                	.2byte	0x501
     87c:	0301                	.2byte	0x301
     87e:	0901                	.2byte	0x901
     880:	0008                	.2byte	0x8
     882:	0501                	.2byte	0x501
     884:	0348                	.2byte	0x348
     886:	0902                	.2byte	0x902
     888:	0010                	.2byte	0x10
     88a:	0501                	.2byte	0x501
     88c:	0304                	.2byte	0x304
     88e:	0901                	.2byte	0x901
     890:	0018                	.2byte	0x18
     892:	0501                	.2byte	0x501
     894:	0901030b          	.4byte	0x901030b
     898:	000c                	.2byte	0xc
     89a:	0501                	.2byte	0x501
     89c:	09010303          	lb	t1,144(sp)
     8a0:	0010                	.2byte	0x10
     8a2:	0301                	.2byte	0x301
     8a4:	0901                	.2byte	0x901
     8a6:	0014                	.2byte	0x14
     8a8:	0501                	.2byte	0x501
     8aa:	0301                	.2byte	0x301
     8ac:	0902                	.2byte	0x902
     8ae:	0014                	.2byte	0x14
     8b0:	0501                	.2byte	0x501
     8b2:	033a                	.2byte	0x33a
     8b4:	0902                	.2byte	0x902
     8b6:	0014                	.2byte	0x14
     8b8:	0501                	.2byte	0x501
     8ba:	0302                	.2byte	0x302
     8bc:	0901                	.2byte	0x901
     8be:	0010                	.2byte	0x10
     8c0:	0501                	.2byte	0x501
     8c2:	0309                	.2byte	0x309
     8c4:	0901                	.2byte	0x901
     8c6:	000c                	.2byte	0xc
     8c8:	0501                	.2byte	0x501
     8ca:	0301                	.2byte	0x301
     8cc:	0901                	.2byte	0x901
     8ce:	0004                	.2byte	0x4
     8d0:	0901                	.2byte	0x901
     8d2:	0014                	.2byte	0x14
     8d4:	0100                	.2byte	0x100
     8d6:	1b01                	.2byte	0x1b01
     8d8:	0011                	.2byte	0x11
     8da:	0500                	.2byte	0x500
     8dc:	0400                	.2byte	0x400
     8de:	4100                	.2byte	0x4100
     8e0:	0000                	.2byte	0x0
     8e2:	0100                	.2byte	0x100
     8e4:	0101                	.2byte	0x101
     8e6:	000d0efb          	.4byte	0xd0efb
     8ea:	0101                	.2byte	0x101
     8ec:	0101                	.2byte	0x101
     8ee:	0000                	.2byte	0x0
     8f0:	0100                	.2byte	0x100
     8f2:	0000                	.2byte	0x0
     8f4:	0101                	.2byte	0x101
     8f6:	1f01                	.2byte	0x1f01
     8f8:	00000003          	lb	zero,0(zero) # 0 <taps>
     8fc:	5500                	.2byte	0x5500
     8fe:	0000                	.2byte	0x0
     900:	9f00                	.2byte	0x9f00
     902:	0000                	.2byte	0x0
     904:	0200                	.2byte	0x200
     906:	1f01                	.2byte	0x1f01
     908:	0f02                	.2byte	0xf02
     90a:	ea05                	.2byte	0xea05
     90c:	0000                	.2byte	0x0
     90e:	0000                	.2byte	0x0
     910:	0084                	.2byte	0x84
     912:	0000                	.2byte	0x0
     914:	fd01                	.2byte	0xfd01
     916:	0000                	.2byte	0x0
     918:	0100                	.2byte	0x100
     91a:	00ea                	.2byte	0xea
     91c:	0000                	.2byte	0x0
     91e:	dd00                	.2byte	0xdd00
     920:	0000                	.2byte	0x0
     922:	0200                	.2byte	0x200
     924:	0105                	.2byte	0x105
     926:	0500                	.2byte	0x500
     928:	0802                	.2byte	0x802
     92a:	0002                	.2byte	0x2
     92c:	0310                	.2byte	0x310
     92e:	010e                	.2byte	0x10e
     930:	0c090b03          	lb	s6,192(s2)
     934:	0100                	.2byte	0x100
     936:	10090303          	lb	t1,256(s2)
     93a:	0100                	.2byte	0x100
     93c:	0c090403          	lb	s0,192(s2)
     940:	0100                	.2byte	0x100
     942:	0204                	.2byte	0x204
     944:	10097203          	.4byte	0x10097203
     948:	0100                	.2byte	0x100
     94a:	0505                	.2byte	0x505
     94c:	18090103          	lb	sp,384(s2)
     950:	0100                	.2byte	0x100
     952:	0305                	.2byte	0x305
     954:	0c090103          	lb	sp,192(s2)
     958:	0100                	.2byte	0x100
     95a:	0b05                	.2byte	0xb05
     95c:	08090103          	lb	sp,128(s2)
     960:	0100                	.2byte	0x100
     962:	0d05                	.2byte	0xd05
     964:	0200                	.2byte	0x200
     966:	0104                	.2byte	0x104
     968:	04090003          	lb	zero,64(s2)
     96c:	0100                	.2byte	0x100
     96e:	3c05                	.2byte	0x3c05
     970:	0200                	.2byte	0x200
     972:	0104                	.2byte	0x104
     974:	0c090003          	lb	zero,192(s2)
     978:	0100                	.2byte	0x100
     97a:	0305                	.2byte	0x305
     97c:	08090103          	lb	sp,128(s2)
     980:	0100                	.2byte	0x100
     982:	3205                	.2byte	0x3205
     984:	08090003          	lb	zero,128(s2)
     988:	0100                	.2byte	0x100
     98a:	0105                	.2byte	0x105
     98c:	08090103          	lb	sp,128(s2)
     990:	0100                	.2byte	0x100
     992:	14090303          	lb	t1,320(s2)
     996:	0100                	.2byte	0x100
     998:	0805                	.2byte	0x805
     99a:	14090103          	lb	sp,320(s2)
     99e:	0100                	.2byte	0x100
     9a0:	0e05                	.2byte	0xe05
     9a2:	04090103          	lb	sp,64(s2)
     9a6:	0100                	.2byte	0x100
     9a8:	0305                	.2byte	0x305
     9aa:	0c090003          	lb	zero,192(s2)
     9ae:	0100                	.2byte	0x100
     9b0:	0905                	.2byte	0x905
     9b2:	0c097f03          	.4byte	0xc097f03
     9b6:	0100                	.2byte	0x100
     9b8:	0105                	.2byte	0x105
     9ba:	0c090203          	lb	tp,192(s2)
     9be:	0100                	.2byte	0x100
     9c0:	0304                	.2byte	0x304
     9c2:	18091103          	lh	sp,384(s2)
     9c6:	0100                	.2byte	0x100
     9c8:	0305                	.2byte	0x305
     9ca:	10093703          	.4byte	0x10093703
     9ce:	0100                	.2byte	0x100
     9d0:	2405                	.2byte	0x2405
     9d2:	08090003          	lb	zero,128(s2)
     9d6:	0100                	.2byte	0x100
     9d8:	0a05                	.2byte	0xa05
     9da:	0c090103          	lb	sp,192(s2)
     9de:	0100                	.2byte	0x100
     9e0:	2b05                	.2byte	0x2b05
     9e2:	08090003          	lb	zero,128(s2)
     9e6:	0100                	.2byte	0x100
     9e8:	0a05                	.2byte	0xa05
     9ea:	0c090103          	lb	sp,192(s2)
     9ee:	0100                	.2byte	0x100
     9f0:	2b05                	.2byte	0x2b05
     9f2:	08090003          	lb	zero,128(s2)
     9f6:	0100                	.2byte	0x100
     9f8:	0a05                	.2byte	0xa05
     9fa:	0c090103          	lb	sp,192(s2)
     9fe:	0100                	.2byte	0x100
     a00:	2b05                	.2byte	0x2b05
     a02:	08090003          	lb	zero,128(s2)
     a06:	0100                	.2byte	0x100
     a08:	0a05                	.2byte	0xa05
     a0a:	0c090103          	lb	sp,192(s2)
     a0e:	0100                	.2byte	0x100
     a10:	2b05                	.2byte	0x2b05
     a12:	08090003          	lb	zero,128(s2)
     a16:	0100                	.2byte	0x100
     a18:	0a05                	.2byte	0xa05
     a1a:	0c090103          	lb	sp,192(s2)
     a1e:	0100                	.2byte	0x100
     a20:	2b05                	.2byte	0x2b05
     a22:	08090003          	lb	zero,128(s2)
     a26:	0100                	.2byte	0x100
     a28:	0a05                	.2byte	0xa05
     a2a:	0c090103          	lb	sp,192(s2)
     a2e:	0100                	.2byte	0x100
     a30:	2b05                	.2byte	0x2b05
     a32:	08090003          	lb	zero,128(s2)
     a36:	0100                	.2byte	0x100
     a38:	0a05                	.2byte	0xa05
     a3a:	0c090103          	lb	sp,192(s2)
     a3e:	0100                	.2byte	0x100
     a40:	2b05                	.2byte	0x2b05
     a42:	08090003          	lb	zero,128(s2)
     a46:	0100                	.2byte	0x100
     a48:	0a05                	.2byte	0xa05
     a4a:	0c090103          	lb	sp,192(s2)
     a4e:	0100                	.2byte	0x100
     a50:	2b05                	.2byte	0x2b05
     a52:	08090003          	lb	zero,128(s2)
     a56:	0100                	.2byte	0x100
     a58:	0a05                	.2byte	0xa05
     a5a:	0c090103          	lb	sp,192(s2)
     a5e:	0100                	.2byte	0x100
     a60:	2b05                	.2byte	0x2b05
     a62:	08090003          	lb	zero,128(s2)
     a66:	0100                	.2byte	0x100
     a68:	0a05                	.2byte	0xa05
     a6a:	0c090103          	lb	sp,192(s2)
     a6e:	0100                	.2byte	0x100
     a70:	2b05                	.2byte	0x2b05
     a72:	08090003          	lb	zero,128(s2)
     a76:	0100                	.2byte	0x100
     a78:	0a05                	.2byte	0xa05
     a7a:	0c090103          	lb	sp,192(s2)
     a7e:	0100                	.2byte	0x100
     a80:	2b05                	.2byte	0x2b05
     a82:	08090003          	lb	zero,128(s2)
     a86:	0100                	.2byte	0x100
     a88:	0a05                	.2byte	0xa05
     a8a:	0c090103          	lb	sp,192(s2)
     a8e:	0100                	.2byte	0x100
     a90:	2b05                	.2byte	0x2b05
     a92:	08090003          	lb	zero,128(s2)
     a96:	0100                	.2byte	0x100
     a98:	0a05                	.2byte	0xa05
     a9a:	0c090103          	lb	sp,192(s2)
     a9e:	0100                	.2byte	0x100
     aa0:	2b05                	.2byte	0x2b05
     aa2:	08090003          	lb	zero,128(s2)
     aa6:	0100                	.2byte	0x100
     aa8:	0a05                	.2byte	0xa05
     aaa:	0c090103          	lb	sp,192(s2)
     aae:	0100                	.2byte	0x100
     ab0:	2b05                	.2byte	0x2b05
     ab2:	08090003          	lb	zero,128(s2)
     ab6:	0100                	.2byte	0x100
     ab8:	0a05                	.2byte	0xa05
     aba:	0c090103          	lb	sp,192(s2)
     abe:	0100                	.2byte	0x100
     ac0:	2b05                	.2byte	0x2b05
     ac2:	08090003          	lb	zero,128(s2)
     ac6:	0100                	.2byte	0x100
     ac8:	0a05                	.2byte	0xa05
     aca:	0c090203          	lb	tp,192(s2)
     ace:	0100                	.2byte	0x100
     ad0:	2b05                	.2byte	0x2b05
     ad2:	08090003          	lb	zero,128(s2)
     ad6:	0100                	.2byte	0x100
     ad8:	0a05                	.2byte	0xa05
     ada:	0c090103          	lb	sp,192(s2)
     ade:	0100                	.2byte	0x100
     ae0:	2b05                	.2byte	0x2b05
     ae2:	08090003          	lb	zero,128(s2)
     ae6:	0100                	.2byte	0x100
     ae8:	0a05                	.2byte	0xa05
     aea:	0c090103          	lb	sp,192(s2)
     aee:	0100                	.2byte	0x100
     af0:	2b05                	.2byte	0x2b05
     af2:	08090003          	lb	zero,128(s2)
     af6:	0100                	.2byte	0x100
     af8:	0a05                	.2byte	0xa05
     afa:	0c090103          	lb	sp,192(s2)
     afe:	0100                	.2byte	0x100
     b00:	2b05                	.2byte	0x2b05
     b02:	08090003          	lb	zero,128(s2)
     b06:	0100                	.2byte	0x100
     b08:	0a05                	.2byte	0xa05
     b0a:	0c090103          	lb	sp,192(s2)
     b0e:	0100                	.2byte	0x100
     b10:	2b05                	.2byte	0x2b05
     b12:	08090003          	lb	zero,128(s2)
     b16:	0100                	.2byte	0x100
     b18:	0a05                	.2byte	0xa05
     b1a:	0c090103          	lb	sp,192(s2)
     b1e:	0100                	.2byte	0x100
     b20:	2b05                	.2byte	0x2b05
     b22:	08090003          	lb	zero,128(s2)
     b26:	0100                	.2byte	0x100
     b28:	0a05                	.2byte	0xa05
     b2a:	0c090103          	lb	sp,192(s2)
     b2e:	0100                	.2byte	0x100
     b30:	2b05                	.2byte	0x2b05
     b32:	08090003          	lb	zero,128(s2)
     b36:	0100                	.2byte	0x100
     b38:	0a05                	.2byte	0xa05
     b3a:	0c090103          	lb	sp,192(s2)
     b3e:	0100                	.2byte	0x100
     b40:	2b05                	.2byte	0x2b05
     b42:	08090003          	lb	zero,128(s2)
     b46:	0100                	.2byte	0x100
     b48:	0a05                	.2byte	0xa05
     b4a:	0c090103          	lb	sp,192(s2)
     b4e:	0100                	.2byte	0x100
     b50:	2b05                	.2byte	0x2b05
     b52:	08090003          	lb	zero,128(s2)
     b56:	0100                	.2byte	0x100
     b58:	0a05                	.2byte	0xa05
     b5a:	0c090103          	lb	sp,192(s2)
     b5e:	0100                	.2byte	0x100
     b60:	2b05                	.2byte	0x2b05
     b62:	08090003          	lb	zero,128(s2)
     b66:	0100                	.2byte	0x100
     b68:	0a05                	.2byte	0xa05
     b6a:	0c090103          	lb	sp,192(s2)
     b6e:	0100                	.2byte	0x100
     b70:	2b05                	.2byte	0x2b05
     b72:	08090003          	lb	zero,128(s2)
     b76:	0100                	.2byte	0x100
     b78:	0a05                	.2byte	0xa05
     b7a:	0c090103          	lb	sp,192(s2)
     b7e:	0100                	.2byte	0x100
     b80:	2b05                	.2byte	0x2b05
     b82:	08090003          	lb	zero,128(s2)
     b86:	0100                	.2byte	0x100
     b88:	0a05                	.2byte	0xa05
     b8a:	0c090103          	lb	sp,192(s2)
     b8e:	0100                	.2byte	0x100
     b90:	2b05                	.2byte	0x2b05
     b92:	08090003          	lb	zero,128(s2)
     b96:	0100                	.2byte	0x100
     b98:	0a05                	.2byte	0xa05
     b9a:	0c090103          	lb	sp,192(s2)
     b9e:	0100                	.2byte	0x100
     ba0:	2b05                	.2byte	0x2b05
     ba2:	08090003          	lb	zero,128(s2)
     ba6:	0100                	.2byte	0x100
     ba8:	0a05                	.2byte	0xa05
     baa:	0c090103          	lb	sp,192(s2)
     bae:	0100                	.2byte	0x100
     bb0:	2b05                	.2byte	0x2b05
     bb2:	08090003          	lb	zero,128(s2)
     bb6:	0100                	.2byte	0x100
     bb8:	0a05                	.2byte	0xa05
     bba:	0c090203          	lb	tp,192(s2)
     bbe:	0100                	.2byte	0x100
     bc0:	2b05                	.2byte	0x2b05
     bc2:	08090003          	lb	zero,128(s2)
     bc6:	0100                	.2byte	0x100
     bc8:	0305                	.2byte	0x305
     bca:	0c090203          	lb	tp,192(s2)
     bce:	0100                	.2byte	0x100
     bd0:	3205                	.2byte	0x3205
     bd2:	04090003          	lb	zero,64(s2)
     bd6:	0100                	.2byte	0x100
     bd8:	0305                	.2byte	0x305
     bda:	08090103          	lb	sp,128(s2)
     bde:	0100                	.2byte	0x100
     be0:	2405                	.2byte	0x2405
     be2:	04090003          	lb	zero,64(s2)
     be6:	0100                	.2byte	0x100
     be8:	0805                	.2byte	0x805
     bea:	08090103          	lb	sp,128(s2)
     bee:	0100                	.2byte	0x100
     bf0:	0a05                	.2byte	0xa05
     bf2:	0200                	.2byte	0x200
     bf4:	0104                	.2byte	0x104
     bf6:	04090003          	lb	zero,64(s2)
     bfa:	0100                	.2byte	0x100
     bfc:	2b05                	.2byte	0x2b05
     bfe:	0200                	.2byte	0x200
     c00:	0104                	.2byte	0x104
     c02:	08090003          	lb	zero,128(s2)
     c06:	0100                	.2byte	0x100
     c08:	3c05                	.2byte	0x3c05
     c0a:	08090103          	lb	sp,128(s2)
     c0e:	0100                	.2byte	0x100
     c10:	7205                	.2byte	0x7205
     c12:	08090003          	lb	zero,128(s2)
     c16:	0100                	.2byte	0x100
     c18:	0305                	.2byte	0x305
     c1a:	08090003          	lb	zero,128(s2)
     c1e:	0100                	.2byte	0x100
     c20:	3905                	.2byte	0x3905
     c22:	08090003          	lb	zero,128(s2)
     c26:	0100                	.2byte	0x100
     c28:	3b05                	.2byte	0x3b05
     c2a:	04090103          	lb	sp,64(s2)
     c2e:	0100                	.2byte	0x100
     c30:	7005                	.2byte	0x7005
     c32:	08090003          	lb	zero,128(s2)
     c36:	0100                	.2byte	0x100
     c38:	0305                	.2byte	0x305
     c3a:	08090003          	lb	zero,128(s2)
     c3e:	0100                	.2byte	0x100
     c40:	3805                	.2byte	0x3805
     c42:	08090003          	lb	zero,128(s2)
     c46:	0100                	.2byte	0x100
     c48:	3b05                	.2byte	0x3b05
     c4a:	04090103          	lb	sp,64(s2)
     c4e:	0100                	.2byte	0x100
     c50:	7005                	.2byte	0x7005
     c52:	08090003          	lb	zero,128(s2)
     c56:	0100                	.2byte	0x100
     c58:	0305                	.2byte	0x305
     c5a:	08090003          	lb	zero,128(s2)
     c5e:	0100                	.2byte	0x100
     c60:	3805                	.2byte	0x3805
     c62:	08090003          	lb	zero,128(s2)
     c66:	0100                	.2byte	0x100
     c68:	3505                	.2byte	0x3505
     c6a:	04090103          	lb	sp,64(s2)
     c6e:	0100                	.2byte	0x100
     c70:	6405                	.2byte	0x6405
     c72:	04090003          	lb	zero,64(s2)
     c76:	0100                	.2byte	0x100
     c78:	0305                	.2byte	0x305
     c7a:	08090003          	lb	zero,128(s2)
     c7e:	0100                	.2byte	0x100
     c80:	3205                	.2byte	0x3205
     c82:	08090003          	lb	zero,128(s2)
     c86:	0100                	.2byte	0x100
     c88:	0305                	.2byte	0x305
     c8a:	04090103          	lb	sp,64(s2)
     c8e:	0100                	.2byte	0x100
     c90:	2405                	.2byte	0x2405
     c92:	08090003          	lb	zero,128(s2)
     c96:	0100                	.2byte	0x100
     c98:	0305                	.2byte	0x305
     c9a:	08090103          	lb	sp,128(s2)
     c9e:	0100                	.2byte	0x100
     ca0:	3805                	.2byte	0x3805
     ca2:	08090003          	lb	zero,128(s2)
     ca6:	0100                	.2byte	0x100
     ca8:	3b05                	.2byte	0x3b05
     caa:	04090103          	lb	sp,64(s2)
     cae:	0100                	.2byte	0x100
     cb0:	7005                	.2byte	0x7005
     cb2:	08090003          	lb	zero,128(s2)
     cb6:	0100                	.2byte	0x100
     cb8:	0305                	.2byte	0x305
     cba:	08090003          	lb	zero,128(s2)
     cbe:	0100                	.2byte	0x100
     cc0:	3805                	.2byte	0x3805
     cc2:	08090003          	lb	zero,128(s2)
     cc6:	0100                	.2byte	0x100
     cc8:	0f05                	.2byte	0xf05
     cca:	04090303          	lb	t1,64(s2)
     cce:	0100                	.2byte	0x100
     cd0:	2605                	.2byte	0x2605
     cd2:	0c090103          	lb	sp,192(s2)
     cd6:	0100                	.2byte	0x100
     cd8:	2d05                	.2byte	0x2d05
     cda:	08090003          	lb	zero,128(s2)
     cde:	0100                	.2byte	0x100
     ce0:	0305                	.2byte	0x305
     ce2:	04090003          	lb	zero,64(s2)
     ce6:	0100                	.2byte	0x100
     ce8:	2405                	.2byte	0x2405
     cea:	08090003          	lb	zero,128(s2)
     cee:	0100                	.2byte	0x100
     cf0:	2d05                	.2byte	0x2d05
     cf2:	04090103          	lb	sp,64(s2)
     cf6:	0100                	.2byte	0x100
     cf8:	2605                	.2byte	0x2605
     cfa:	08090003          	lb	zero,128(s2)
     cfe:	0100                	.2byte	0x100
     d00:	3105                	.2byte	0x3105
     d02:	04090003          	lb	zero,64(s2)
     d06:	0100                	.2byte	0x100
     d08:	0305                	.2byte	0x305
     d0a:	04090003          	lb	zero,64(s2)
     d0e:	0100                	.2byte	0x100
     d10:	2405                	.2byte	0x2405
     d12:	08090003          	lb	zero,128(s2)
     d16:	0100                	.2byte	0x100
     d18:	2d05                	.2byte	0x2d05
     d1a:	04090103          	lb	sp,64(s2)
     d1e:	0100                	.2byte	0x100
     d20:	2605                	.2byte	0x2605
     d22:	08090003          	lb	zero,128(s2)
     d26:	0100                	.2byte	0x100
     d28:	3105                	.2byte	0x3105
     d2a:	04090003          	lb	zero,64(s2)
     d2e:	0100                	.2byte	0x100
     d30:	0305                	.2byte	0x305
     d32:	04090003          	lb	zero,64(s2)
     d36:	0100                	.2byte	0x100
     d38:	2405                	.2byte	0x2405
     d3a:	08090003          	lb	zero,128(s2)
     d3e:	0100                	.2byte	0x100
     d40:	2d05                	.2byte	0x2d05
     d42:	04090103          	lb	sp,64(s2)
     d46:	0100                	.2byte	0x100
     d48:	2605                	.2byte	0x2605
     d4a:	08090003          	lb	zero,128(s2)
     d4e:	0100                	.2byte	0x100
     d50:	3105                	.2byte	0x3105
     d52:	04090003          	lb	zero,64(s2)
     d56:	0100                	.2byte	0x100
     d58:	0305                	.2byte	0x305
     d5a:	04090003          	lb	zero,64(s2)
     d5e:	0100                	.2byte	0x100
     d60:	2405                	.2byte	0x2405
     d62:	08090003          	lb	zero,128(s2)
     d66:	0100                	.2byte	0x100
     d68:	2d05                	.2byte	0x2d05
     d6a:	04090103          	lb	sp,64(s2)
     d6e:	0100                	.2byte	0x100
     d70:	2605                	.2byte	0x2605
     d72:	08090003          	lb	zero,128(s2)
     d76:	0100                	.2byte	0x100
     d78:	3105                	.2byte	0x3105
     d7a:	04090003          	lb	zero,64(s2)
     d7e:	0100                	.2byte	0x100
     d80:	0305                	.2byte	0x305
     d82:	04090003          	lb	zero,64(s2)
     d86:	0100                	.2byte	0x100
     d88:	2405                	.2byte	0x2405
     d8a:	08090003          	lb	zero,128(s2)
     d8e:	0100                	.2byte	0x100
     d90:	2d05                	.2byte	0x2d05
     d92:	04090103          	lb	sp,64(s2)
     d96:	0100                	.2byte	0x100
     d98:	2605                	.2byte	0x2605
     d9a:	08090003          	lb	zero,128(s2)
     d9e:	0100                	.2byte	0x100
     da0:	3105                	.2byte	0x3105
     da2:	04090003          	lb	zero,64(s2)
     da6:	0100                	.2byte	0x100
     da8:	0305                	.2byte	0x305
     daa:	04090003          	lb	zero,64(s2)
     dae:	0100                	.2byte	0x100
     db0:	2405                	.2byte	0x2405
     db2:	08090003          	lb	zero,128(s2)
     db6:	0100                	.2byte	0x100
     db8:	2d05                	.2byte	0x2d05
     dba:	04090103          	lb	sp,64(s2)
     dbe:	0100                	.2byte	0x100
     dc0:	2605                	.2byte	0x2605
     dc2:	08090003          	lb	zero,128(s2)
     dc6:	0100                	.2byte	0x100
     dc8:	3105                	.2byte	0x3105
     dca:	04090003          	lb	zero,64(s2)
     dce:	0100                	.2byte	0x100
     dd0:	0305                	.2byte	0x305
     dd2:	04090003          	lb	zero,64(s2)
     dd6:	0100                	.2byte	0x100
     dd8:	2405                	.2byte	0x2405
     dda:	08090003          	lb	zero,128(s2)
     dde:	0100                	.2byte	0x100
     de0:	2d05                	.2byte	0x2d05
     de2:	04090103          	lb	sp,64(s2)
     de6:	0100                	.2byte	0x100
     de8:	2605                	.2byte	0x2605
     dea:	08090003          	lb	zero,128(s2)
     dee:	0100                	.2byte	0x100
     df0:	3105                	.2byte	0x3105
     df2:	04090003          	lb	zero,64(s2)
     df6:	0100                	.2byte	0x100
     df8:	0305                	.2byte	0x305
     dfa:	04090003          	lb	zero,64(s2)
     dfe:	0100                	.2byte	0x100
     e00:	2405                	.2byte	0x2405
     e02:	08090003          	lb	zero,128(s2)
     e06:	0100                	.2byte	0x100
     e08:	2d05                	.2byte	0x2d05
     e0a:	04090103          	lb	sp,64(s2)
     e0e:	0100                	.2byte	0x100
     e10:	2605                	.2byte	0x2605
     e12:	08090003          	lb	zero,128(s2)
     e16:	0100                	.2byte	0x100
     e18:	3105                	.2byte	0x3105
     e1a:	04090003          	lb	zero,64(s2)
     e1e:	0100                	.2byte	0x100
     e20:	0305                	.2byte	0x305
     e22:	04090003          	lb	zero,64(s2)
     e26:	0100                	.2byte	0x100
     e28:	2405                	.2byte	0x2405
     e2a:	08090003          	lb	zero,128(s2)
     e2e:	0100                	.2byte	0x100
     e30:	2d05                	.2byte	0x2d05
     e32:	04090103          	lb	sp,64(s2)
     e36:	0100                	.2byte	0x100
     e38:	2605                	.2byte	0x2605
     e3a:	08090003          	lb	zero,128(s2)
     e3e:	0100                	.2byte	0x100
     e40:	3105                	.2byte	0x3105
     e42:	04090003          	lb	zero,64(s2)
     e46:	0100                	.2byte	0x100
     e48:	0305                	.2byte	0x305
     e4a:	04090003          	lb	zero,64(s2)
     e4e:	0100                	.2byte	0x100
     e50:	2405                	.2byte	0x2405
     e52:	08090003          	lb	zero,128(s2)
     e56:	0100                	.2byte	0x100
     e58:	2d05                	.2byte	0x2d05
     e5a:	04090103          	lb	sp,64(s2)
     e5e:	0100                	.2byte	0x100
     e60:	2605                	.2byte	0x2605
     e62:	08090003          	lb	zero,128(s2)
     e66:	0100                	.2byte	0x100
     e68:	3205                	.2byte	0x3205
     e6a:	04090003          	lb	zero,64(s2)
     e6e:	0100                	.2byte	0x100
     e70:	0305                	.2byte	0x305
     e72:	04090003          	lb	zero,64(s2)
     e76:	0100                	.2byte	0x100
     e78:	2405                	.2byte	0x2405
     e7a:	08090003          	lb	zero,128(s2)
     e7e:	0100                	.2byte	0x100
     e80:	0305                	.2byte	0x305
     e82:	04090103          	lb	sp,64(s2)
     e86:	0100                	.2byte	0x100
     e88:	2405                	.2byte	0x2405
     e8a:	08090003          	lb	zero,128(s2)
     e8e:	0100                	.2byte	0x100
     e90:	0305                	.2byte	0x305
     e92:	08090303          	lb	t1,128(s2)
     e96:	0100                	.2byte	0x100
     e98:	2405                	.2byte	0x2405
     e9a:	08090003          	lb	zero,128(s2)
     e9e:	0100                	.2byte	0x100
     ea0:	0a05                	.2byte	0xa05
     ea2:	0c090103          	lb	sp,192(s2)
     ea6:	0100                	.2byte	0x100
     ea8:	2b05                	.2byte	0x2b05
     eaa:	08090003          	lb	zero,128(s2)
     eae:	0100                	.2byte	0x100
     eb0:	0a05                	.2byte	0xa05
     eb2:	0c090103          	lb	sp,192(s2)
     eb6:	0100                	.2byte	0x100
     eb8:	2b05                	.2byte	0x2b05
     eba:	08090003          	lb	zero,128(s2)
     ebe:	0100                	.2byte	0x100
     ec0:	0a05                	.2byte	0xa05
     ec2:	0c090103          	lb	sp,192(s2)
     ec6:	0100                	.2byte	0x100
     ec8:	2b05                	.2byte	0x2b05
     eca:	08090003          	lb	zero,128(s2)
     ece:	0100                	.2byte	0x100
     ed0:	0a05                	.2byte	0xa05
     ed2:	0c090103          	lb	sp,192(s2)
     ed6:	0100                	.2byte	0x100
     ed8:	2b05                	.2byte	0x2b05
     eda:	08090003          	lb	zero,128(s2)
     ede:	0100                	.2byte	0x100
     ee0:	0a05                	.2byte	0xa05
     ee2:	0c090103          	lb	sp,192(s2)
     ee6:	0100                	.2byte	0x100
     ee8:	2b05                	.2byte	0x2b05
     eea:	08090003          	lb	zero,128(s2)
     eee:	0100                	.2byte	0x100
     ef0:	0a05                	.2byte	0xa05
     ef2:	0c090103          	lb	sp,192(s2)
     ef6:	0100                	.2byte	0x100
     ef8:	2b05                	.2byte	0x2b05
     efa:	08090003          	lb	zero,128(s2)
     efe:	0100                	.2byte	0x100
     f00:	0a05                	.2byte	0xa05
     f02:	0c090103          	lb	sp,192(s2)
     f06:	0100                	.2byte	0x100
     f08:	2b05                	.2byte	0x2b05
     f0a:	08090003          	lb	zero,128(s2)
     f0e:	0100                	.2byte	0x100
     f10:	0a05                	.2byte	0xa05
     f12:	0c090103          	lb	sp,192(s2)
     f16:	0100                	.2byte	0x100
     f18:	2b05                	.2byte	0x2b05
     f1a:	08090003          	lb	zero,128(s2)
     f1e:	0100                	.2byte	0x100
     f20:	0a05                	.2byte	0xa05
     f22:	0c090103          	lb	sp,192(s2)
     f26:	0100                	.2byte	0x100
     f28:	2b05                	.2byte	0x2b05
     f2a:	08090003          	lb	zero,128(s2)
     f2e:	0100                	.2byte	0x100
     f30:	0a05                	.2byte	0xa05
     f32:	0c090103          	lb	sp,192(s2)
     f36:	0100                	.2byte	0x100
     f38:	2b05                	.2byte	0x2b05
     f3a:	08090003          	lb	zero,128(s2)
     f3e:	0100                	.2byte	0x100
     f40:	0a05                	.2byte	0xa05
     f42:	0c090103          	lb	sp,192(s2)
     f46:	0100                	.2byte	0x100
     f48:	2b05                	.2byte	0x2b05
     f4a:	08090003          	lb	zero,128(s2)
     f4e:	0100                	.2byte	0x100
     f50:	0a05                	.2byte	0xa05
     f52:	0c090103          	lb	sp,192(s2)
     f56:	0100                	.2byte	0x100
     f58:	2b05                	.2byte	0x2b05
     f5a:	08090003          	lb	zero,128(s2)
     f5e:	0100                	.2byte	0x100
     f60:	0a05                	.2byte	0xa05
     f62:	0c090103          	lb	sp,192(s2)
     f66:	0100                	.2byte	0x100
     f68:	2b05                	.2byte	0x2b05
     f6a:	08090003          	lb	zero,128(s2)
     f6e:	0100                	.2byte	0x100
     f70:	0a05                	.2byte	0xa05
     f72:	0c090103          	lb	sp,192(s2)
     f76:	0100                	.2byte	0x100
     f78:	2b05                	.2byte	0x2b05
     f7a:	08090003          	lb	zero,128(s2)
     f7e:	0100                	.2byte	0x100
     f80:	0a05                	.2byte	0xa05
     f82:	0c090103          	lb	sp,192(s2)
     f86:	0100                	.2byte	0x100
     f88:	2b05                	.2byte	0x2b05
     f8a:	08090003          	lb	zero,128(s2)
     f8e:	0100                	.2byte	0x100
     f90:	0a05                	.2byte	0xa05
     f92:	0c090203          	lb	tp,192(s2)
     f96:	0100                	.2byte	0x100
     f98:	2b05                	.2byte	0x2b05
     f9a:	08090003          	lb	zero,128(s2)
     f9e:	0100                	.2byte	0x100
     fa0:	0a05                	.2byte	0xa05
     fa2:	0c090103          	lb	sp,192(s2)
     fa6:	0100                	.2byte	0x100
     fa8:	2b05                	.2byte	0x2b05
     faa:	08090003          	lb	zero,128(s2)
     fae:	0100                	.2byte	0x100
     fb0:	0a05                	.2byte	0xa05
     fb2:	0c090103          	lb	sp,192(s2)
     fb6:	0100                	.2byte	0x100
     fb8:	2b05                	.2byte	0x2b05
     fba:	08090003          	lb	zero,128(s2)
     fbe:	0100                	.2byte	0x100
     fc0:	0a05                	.2byte	0xa05
     fc2:	0c090103          	lb	sp,192(s2)
     fc6:	0100                	.2byte	0x100
     fc8:	2b05                	.2byte	0x2b05
     fca:	08090003          	lb	zero,128(s2)
     fce:	0100                	.2byte	0x100
     fd0:	0a05                	.2byte	0xa05
     fd2:	0c090103          	lb	sp,192(s2)
     fd6:	0100                	.2byte	0x100
     fd8:	2b05                	.2byte	0x2b05
     fda:	08090003          	lb	zero,128(s2)
     fde:	0100                	.2byte	0x100
     fe0:	0a05                	.2byte	0xa05
     fe2:	0c090103          	lb	sp,192(s2)
     fe6:	0100                	.2byte	0x100
     fe8:	2b05                	.2byte	0x2b05
     fea:	08090003          	lb	zero,128(s2)
     fee:	0100                	.2byte	0x100
     ff0:	0a05                	.2byte	0xa05
     ff2:	0c090103          	lb	sp,192(s2)
     ff6:	0100                	.2byte	0x100
     ff8:	2b05                	.2byte	0x2b05
     ffa:	08090003          	lb	zero,128(s2)
     ffe:	0100                	.2byte	0x100
    1000:	0a05                	.2byte	0xa05
    1002:	0c090103          	lb	sp,192(s2)
    1006:	0100                	.2byte	0x100
    1008:	2b05                	.2byte	0x2b05
    100a:	08090003          	lb	zero,128(s2)
    100e:	0100                	.2byte	0x100
    1010:	0a05                	.2byte	0xa05
    1012:	0c090103          	lb	sp,192(s2)
    1016:	0100                	.2byte	0x100
    1018:	2b05                	.2byte	0x2b05
    101a:	08090003          	lb	zero,128(s2)
    101e:	0100                	.2byte	0x100
    1020:	0a05                	.2byte	0xa05
    1022:	0c090103          	lb	sp,192(s2)
    1026:	0100                	.2byte	0x100
    1028:	2b05                	.2byte	0x2b05
    102a:	08090003          	lb	zero,128(s2)
    102e:	0100                	.2byte	0x100
    1030:	0a05                	.2byte	0xa05
    1032:	0c090103          	lb	sp,192(s2)
    1036:	0100                	.2byte	0x100
    1038:	2b05                	.2byte	0x2b05
    103a:	08090003          	lb	zero,128(s2)
    103e:	0100                	.2byte	0x100
    1040:	0a05                	.2byte	0xa05
    1042:	0c090103          	lb	sp,192(s2)
    1046:	0100                	.2byte	0x100
    1048:	2b05                	.2byte	0x2b05
    104a:	08090003          	lb	zero,128(s2)
    104e:	0100                	.2byte	0x100
    1050:	0a05                	.2byte	0xa05
    1052:	0c090103          	lb	sp,192(s2)
    1056:	0100                	.2byte	0x100
    1058:	2b05                	.2byte	0x2b05
    105a:	08090003          	lb	zero,128(s2)
    105e:	0100                	.2byte	0x100
    1060:	0a05                	.2byte	0xa05
    1062:	0c090103          	lb	sp,192(s2)
    1066:	0100                	.2byte	0x100
    1068:	2b05                	.2byte	0x2b05
    106a:	08090003          	lb	zero,128(s2)
    106e:	0100                	.2byte	0x100
    1070:	0a05                	.2byte	0xa05
    1072:	0c090103          	lb	sp,192(s2)
    1076:	0100                	.2byte	0x100
    1078:	2b05                	.2byte	0x2b05
    107a:	08090003          	lb	zero,128(s2)
    107e:	0100                	.2byte	0x100
    1080:	0a05                	.2byte	0xa05
    1082:	0c090203          	lb	tp,192(s2)
    1086:	0100                	.2byte	0x100
    1088:	2b05                	.2byte	0x2b05
    108a:	08090003          	lb	zero,128(s2)
    108e:	0100                	.2byte	0x100
    1090:	0305                	.2byte	0x305
    1092:	0c090203          	lb	tp,192(s2)
    1096:	0100                	.2byte	0x100
    1098:	3205                	.2byte	0x3205
    109a:	04090003          	lb	zero,64(s2)
    109e:	0100                	.2byte	0x100
    10a0:	0305                	.2byte	0x305
    10a2:	08090103          	lb	sp,128(s2)
    10a6:	0100                	.2byte	0x100
    10a8:	2405                	.2byte	0x2405
    10aa:	04090003          	lb	zero,64(s2)
    10ae:	0100                	.2byte	0x100
    10b0:	0805                	.2byte	0x805
    10b2:	08090103          	lb	sp,128(s2)
    10b6:	0100                	.2byte	0x100
    10b8:	0a05                	.2byte	0xa05
    10ba:	0200                	.2byte	0x200
    10bc:	0104                	.2byte	0x104
    10be:	04090003          	lb	zero,64(s2)
    10c2:	0100                	.2byte	0x100
    10c4:	2b05                	.2byte	0x2b05
    10c6:	0200                	.2byte	0x200
    10c8:	0104                	.2byte	0x104
    10ca:	08090003          	lb	zero,128(s2)
    10ce:	0100                	.2byte	0x100
    10d0:	3c05                	.2byte	0x3c05
    10d2:	08090103          	lb	sp,128(s2)
    10d6:	0100                	.2byte	0x100
    10d8:	7205                	.2byte	0x7205
    10da:	08090003          	lb	zero,128(s2)
    10de:	0100                	.2byte	0x100
    10e0:	0305                	.2byte	0x305
    10e2:	08090003          	lb	zero,128(s2)
    10e6:	0100                	.2byte	0x100
    10e8:	3905                	.2byte	0x3905
    10ea:	08090003          	lb	zero,128(s2)
    10ee:	0100                	.2byte	0x100
    10f0:	3b05                	.2byte	0x3b05
    10f2:	04090103          	lb	sp,64(s2)
    10f6:	0100                	.2byte	0x100
    10f8:	7005                	.2byte	0x7005
    10fa:	08090003          	lb	zero,128(s2)
    10fe:	0100                	.2byte	0x100
    1100:	0305                	.2byte	0x305
    1102:	08090003          	lb	zero,128(s2)
    1106:	0100                	.2byte	0x100
    1108:	3805                	.2byte	0x3805
    110a:	08090003          	lb	zero,128(s2)
    110e:	0100                	.2byte	0x100
    1110:	3b05                	.2byte	0x3b05
    1112:	04090103          	lb	sp,64(s2)
    1116:	0100                	.2byte	0x100
    1118:	7005                	.2byte	0x7005
    111a:	08090003          	lb	zero,128(s2)
    111e:	0100                	.2byte	0x100
    1120:	0305                	.2byte	0x305
    1122:	08090003          	lb	zero,128(s2)
    1126:	0100                	.2byte	0x100
    1128:	3805                	.2byte	0x3805
    112a:	08090003          	lb	zero,128(s2)
    112e:	0100                	.2byte	0x100
    1130:	3505                	.2byte	0x3505
    1132:	04090103          	lb	sp,64(s2)
    1136:	0100                	.2byte	0x100
    1138:	6405                	.2byte	0x6405
    113a:	04090003          	lb	zero,64(s2)
    113e:	0100                	.2byte	0x100
    1140:	0305                	.2byte	0x305
    1142:	08090003          	lb	zero,128(s2)
    1146:	0100                	.2byte	0x100
    1148:	3205                	.2byte	0x3205
    114a:	08090003          	lb	zero,128(s2)
    114e:	0100                	.2byte	0x100
    1150:	0305                	.2byte	0x305
    1152:	04090203          	lb	tp,64(s2)
    1156:	0100                	.2byte	0x100
    1158:	3805                	.2byte	0x3805
    115a:	08090003          	lb	zero,128(s2)
    115e:	0100                	.2byte	0x100
    1160:	3b05                	.2byte	0x3b05
    1162:	04090103          	lb	sp,64(s2)
    1166:	0100                	.2byte	0x100
    1168:	7005                	.2byte	0x7005
    116a:	08090003          	lb	zero,128(s2)
    116e:	0100                	.2byte	0x100
    1170:	0305                	.2byte	0x305
    1172:	08090003          	lb	zero,128(s2)
    1176:	0100                	.2byte	0x100
    1178:	3805                	.2byte	0x3805
    117a:	08090003          	lb	zero,128(s2)
    117e:	0100                	.2byte	0x100
    1180:	0f05                	.2byte	0xf05
    1182:	04090203          	lb	tp,64(s2)
    1186:	0100                	.2byte	0x100
    1188:	2605                	.2byte	0x2605
    118a:	0c090103          	lb	sp,192(s2)
    118e:	0100                	.2byte	0x100
    1190:	2d05                	.2byte	0x2d05
    1192:	08090003          	lb	zero,128(s2)
    1196:	0100                	.2byte	0x100
    1198:	0305                	.2byte	0x305
    119a:	04090003          	lb	zero,64(s2)
    119e:	0100                	.2byte	0x100
    11a0:	2405                	.2byte	0x2405
    11a2:	08090003          	lb	zero,128(s2)
    11a6:	0100                	.2byte	0x100
    11a8:	2d05                	.2byte	0x2d05
    11aa:	04090103          	lb	sp,64(s2)
    11ae:	0100                	.2byte	0x100
    11b0:	2605                	.2byte	0x2605
    11b2:	08090003          	lb	zero,128(s2)
    11b6:	0100                	.2byte	0x100
    11b8:	3105                	.2byte	0x3105
    11ba:	04090003          	lb	zero,64(s2)
    11be:	0100                	.2byte	0x100
    11c0:	0305                	.2byte	0x305
    11c2:	04090003          	lb	zero,64(s2)
    11c6:	0100                	.2byte	0x100
    11c8:	2405                	.2byte	0x2405
    11ca:	08090003          	lb	zero,128(s2)
    11ce:	0100                	.2byte	0x100
    11d0:	2d05                	.2byte	0x2d05
    11d2:	04090103          	lb	sp,64(s2)
    11d6:	0100                	.2byte	0x100
    11d8:	2605                	.2byte	0x2605
    11da:	08090003          	lb	zero,128(s2)
    11de:	0100                	.2byte	0x100
    11e0:	3105                	.2byte	0x3105
    11e2:	04090003          	lb	zero,64(s2)
    11e6:	0100                	.2byte	0x100
    11e8:	0305                	.2byte	0x305
    11ea:	04090003          	lb	zero,64(s2)
    11ee:	0100                	.2byte	0x100
    11f0:	2405                	.2byte	0x2405
    11f2:	08090003          	lb	zero,128(s2)
    11f6:	0100                	.2byte	0x100
    11f8:	2d05                	.2byte	0x2d05
    11fa:	04090103          	lb	sp,64(s2)
    11fe:	0100                	.2byte	0x100
    1200:	2605                	.2byte	0x2605
    1202:	08090003          	lb	zero,128(s2)
    1206:	0100                	.2byte	0x100
    1208:	3105                	.2byte	0x3105
    120a:	04090003          	lb	zero,64(s2)
    120e:	0100                	.2byte	0x100
    1210:	0305                	.2byte	0x305
    1212:	04090003          	lb	zero,64(s2)
    1216:	0100                	.2byte	0x100
    1218:	2405                	.2byte	0x2405
    121a:	08090003          	lb	zero,128(s2)
    121e:	0100                	.2byte	0x100
    1220:	2d05                	.2byte	0x2d05
    1222:	04090103          	lb	sp,64(s2)
    1226:	0100                	.2byte	0x100
    1228:	2605                	.2byte	0x2605
    122a:	08090003          	lb	zero,128(s2)
    122e:	0100                	.2byte	0x100
    1230:	3105                	.2byte	0x3105
    1232:	04090003          	lb	zero,64(s2)
    1236:	0100                	.2byte	0x100
    1238:	0305                	.2byte	0x305
    123a:	04090003          	lb	zero,64(s2)
    123e:	0100                	.2byte	0x100
    1240:	2405                	.2byte	0x2405
    1242:	08090003          	lb	zero,128(s2)
    1246:	0100                	.2byte	0x100
    1248:	0305                	.2byte	0x305
    124a:	04090503          	lb	a0,64(s2)
    124e:	0100                	.2byte	0x100
    1250:	2405                	.2byte	0x2405
    1252:	08090003          	lb	zero,128(s2)
    1256:	0100                	.2byte	0x100
    1258:	0a05                	.2byte	0xa05
    125a:	0c090103          	lb	sp,192(s2)
    125e:	0100                	.2byte	0x100
    1260:	2b05                	.2byte	0x2b05
    1262:	08090003          	lb	zero,128(s2)
    1266:	0100                	.2byte	0x100
    1268:	0a05                	.2byte	0xa05
    126a:	0c090103          	lb	sp,192(s2)
    126e:	0100                	.2byte	0x100
    1270:	2b05                	.2byte	0x2b05
    1272:	08090003          	lb	zero,128(s2)
    1276:	0100                	.2byte	0x100
    1278:	0a05                	.2byte	0xa05
    127a:	0c090103          	lb	sp,192(s2)
    127e:	0100                	.2byte	0x100
    1280:	2b05                	.2byte	0x2b05
    1282:	08090003          	lb	zero,128(s2)
    1286:	0100                	.2byte	0x100
    1288:	0a05                	.2byte	0xa05
    128a:	0c090103          	lb	sp,192(s2)
    128e:	0100                	.2byte	0x100
    1290:	2b05                	.2byte	0x2b05
    1292:	08090003          	lb	zero,128(s2)
    1296:	0100                	.2byte	0x100
    1298:	0a05                	.2byte	0xa05
    129a:	0c090103          	lb	sp,192(s2)
    129e:	0100                	.2byte	0x100
    12a0:	2b05                	.2byte	0x2b05
    12a2:	08090003          	lb	zero,128(s2)
    12a6:	0100                	.2byte	0x100
    12a8:	0a05                	.2byte	0xa05
    12aa:	0c090103          	lb	sp,192(s2)
    12ae:	0100                	.2byte	0x100
    12b0:	2b05                	.2byte	0x2b05
    12b2:	08090003          	lb	zero,128(s2)
    12b6:	0100                	.2byte	0x100
    12b8:	0a05                	.2byte	0xa05
    12ba:	0c090103          	lb	sp,192(s2)
    12be:	0100                	.2byte	0x100
    12c0:	2b05                	.2byte	0x2b05
    12c2:	08090003          	lb	zero,128(s2)
    12c6:	0100                	.2byte	0x100
    12c8:	0a05                	.2byte	0xa05
    12ca:	0c090103          	lb	sp,192(s2)
    12ce:	0100                	.2byte	0x100
    12d0:	2b05                	.2byte	0x2b05
    12d2:	08090003          	lb	zero,128(s2)
    12d6:	0100                	.2byte	0x100
    12d8:	0a05                	.2byte	0xa05
    12da:	0c090103          	lb	sp,192(s2)
    12de:	0100                	.2byte	0x100
    12e0:	2b05                	.2byte	0x2b05
    12e2:	08090003          	lb	zero,128(s2)
    12e6:	0100                	.2byte	0x100
    12e8:	0a05                	.2byte	0xa05
    12ea:	0c090103          	lb	sp,192(s2)
    12ee:	0100                	.2byte	0x100
    12f0:	2b05                	.2byte	0x2b05
    12f2:	08090003          	lb	zero,128(s2)
    12f6:	0100                	.2byte	0x100
    12f8:	0a05                	.2byte	0xa05
    12fa:	0c090103          	lb	sp,192(s2)
    12fe:	0100                	.2byte	0x100
    1300:	2b05                	.2byte	0x2b05
    1302:	08090003          	lb	zero,128(s2)
    1306:	0100                	.2byte	0x100
    1308:	0a05                	.2byte	0xa05
    130a:	0c090103          	lb	sp,192(s2)
    130e:	0100                	.2byte	0x100
    1310:	2b05                	.2byte	0x2b05
    1312:	08090003          	lb	zero,128(s2)
    1316:	0100                	.2byte	0x100
    1318:	0a05                	.2byte	0xa05
    131a:	0c090103          	lb	sp,192(s2)
    131e:	0100                	.2byte	0x100
    1320:	2b05                	.2byte	0x2b05
    1322:	08090003          	lb	zero,128(s2)
    1326:	0100                	.2byte	0x100
    1328:	0a05                	.2byte	0xa05
    132a:	0c090103          	lb	sp,192(s2)
    132e:	0100                	.2byte	0x100
    1330:	2b05                	.2byte	0x2b05
    1332:	08090003          	lb	zero,128(s2)
    1336:	0100                	.2byte	0x100
    1338:	0a05                	.2byte	0xa05
    133a:	0c090103          	lb	sp,192(s2)
    133e:	0100                	.2byte	0x100
    1340:	2b05                	.2byte	0x2b05
    1342:	08090003          	lb	zero,128(s2)
    1346:	0100                	.2byte	0x100
    1348:	0a05                	.2byte	0xa05
    134a:	0c090203          	lb	tp,192(s2)
    134e:	0100                	.2byte	0x100
    1350:	2b05                	.2byte	0x2b05
    1352:	08090003          	lb	zero,128(s2)
    1356:	0100                	.2byte	0x100
    1358:	0a05                	.2byte	0xa05
    135a:	0c090103          	lb	sp,192(s2)
    135e:	0100                	.2byte	0x100
    1360:	2b05                	.2byte	0x2b05
    1362:	08090003          	lb	zero,128(s2)
    1366:	0100                	.2byte	0x100
    1368:	0a05                	.2byte	0xa05
    136a:	0c090103          	lb	sp,192(s2)
    136e:	0100                	.2byte	0x100
    1370:	2b05                	.2byte	0x2b05
    1372:	08090003          	lb	zero,128(s2)
    1376:	0100                	.2byte	0x100
    1378:	0a05                	.2byte	0xa05
    137a:	0c090103          	lb	sp,192(s2)
    137e:	0100                	.2byte	0x100
    1380:	2b05                	.2byte	0x2b05
    1382:	08090003          	lb	zero,128(s2)
    1386:	0100                	.2byte	0x100
    1388:	0a05                	.2byte	0xa05
    138a:	0c090103          	lb	sp,192(s2)
    138e:	0100                	.2byte	0x100
    1390:	2b05                	.2byte	0x2b05
    1392:	08090003          	lb	zero,128(s2)
    1396:	0100                	.2byte	0x100
    1398:	0a05                	.2byte	0xa05
    139a:	0c090103          	lb	sp,192(s2)
    139e:	0100                	.2byte	0x100
    13a0:	2b05                	.2byte	0x2b05
    13a2:	08090003          	lb	zero,128(s2)
    13a6:	0100                	.2byte	0x100
    13a8:	0a05                	.2byte	0xa05
    13aa:	0c090103          	lb	sp,192(s2)
    13ae:	0100                	.2byte	0x100
    13b0:	2b05                	.2byte	0x2b05
    13b2:	08090003          	lb	zero,128(s2)
    13b6:	0100                	.2byte	0x100
    13b8:	0a05                	.2byte	0xa05
    13ba:	0c090103          	lb	sp,192(s2)
    13be:	0100                	.2byte	0x100
    13c0:	2b05                	.2byte	0x2b05
    13c2:	08090003          	lb	zero,128(s2)
    13c6:	0100                	.2byte	0x100
    13c8:	0a05                	.2byte	0xa05
    13ca:	0c090103          	lb	sp,192(s2)
    13ce:	0100                	.2byte	0x100
    13d0:	2b05                	.2byte	0x2b05
    13d2:	08090003          	lb	zero,128(s2)
    13d6:	0100                	.2byte	0x100
    13d8:	0a05                	.2byte	0xa05
    13da:	0c090103          	lb	sp,192(s2)
    13de:	0100                	.2byte	0x100
    13e0:	2b05                	.2byte	0x2b05
    13e2:	08090003          	lb	zero,128(s2)
    13e6:	0100                	.2byte	0x100
    13e8:	0a05                	.2byte	0xa05
    13ea:	0c090103          	lb	sp,192(s2)
    13ee:	0100                	.2byte	0x100
    13f0:	2b05                	.2byte	0x2b05
    13f2:	08090003          	lb	zero,128(s2)
    13f6:	0100                	.2byte	0x100
    13f8:	0a05                	.2byte	0xa05
    13fa:	0c090103          	lb	sp,192(s2)
    13fe:	0100                	.2byte	0x100
    1400:	2b05                	.2byte	0x2b05
    1402:	08090003          	lb	zero,128(s2)
    1406:	0100                	.2byte	0x100
    1408:	0a05                	.2byte	0xa05
    140a:	0c090103          	lb	sp,192(s2)
    140e:	0100                	.2byte	0x100
    1410:	2b05                	.2byte	0x2b05
    1412:	08090003          	lb	zero,128(s2)
    1416:	0100                	.2byte	0x100
    1418:	0a05                	.2byte	0xa05
    141a:	0c090103          	lb	sp,192(s2)
    141e:	0100                	.2byte	0x100
    1420:	2b05                	.2byte	0x2b05
    1422:	08090003          	lb	zero,128(s2)
    1426:	0100                	.2byte	0x100
    1428:	0a05                	.2byte	0xa05
    142a:	0c090103          	lb	sp,192(s2)
    142e:	0100                	.2byte	0x100
    1430:	2b05                	.2byte	0x2b05
    1432:	08090003          	lb	zero,128(s2)
    1436:	0100                	.2byte	0x100
    1438:	0a05                	.2byte	0xa05
    143a:	0c090203          	lb	tp,192(s2)
    143e:	0100                	.2byte	0x100
    1440:	2b05                	.2byte	0x2b05
    1442:	08090003          	lb	zero,128(s2)
    1446:	0100                	.2byte	0x100
    1448:	0305                	.2byte	0x305
    144a:	0c090203          	lb	tp,192(s2)
    144e:	0100                	.2byte	0x100
    1450:	3205                	.2byte	0x3205
    1452:	04090003          	lb	zero,64(s2)
    1456:	0100                	.2byte	0x100
    1458:	0305                	.2byte	0x305
    145a:	08090103          	lb	sp,128(s2)
    145e:	0100                	.2byte	0x100
    1460:	2405                	.2byte	0x2405
    1462:	04090003          	lb	zero,64(s2)
    1466:	0100                	.2byte	0x100
    1468:	0805                	.2byte	0x805
    146a:	08090103          	lb	sp,128(s2)
    146e:	0100                	.2byte	0x100
    1470:	0a05                	.2byte	0xa05
    1472:	0200                	.2byte	0x200
    1474:	0104                	.2byte	0x104
    1476:	04090003          	lb	zero,64(s2)
    147a:	0100                	.2byte	0x100
    147c:	2b05                	.2byte	0x2b05
    147e:	0200                	.2byte	0x200
    1480:	0104                	.2byte	0x104
    1482:	08090003          	lb	zero,128(s2)
    1486:	0100                	.2byte	0x100
    1488:	3c05                	.2byte	0x3c05
    148a:	08090103          	lb	sp,128(s2)
    148e:	0100                	.2byte	0x100
    1490:	7205                	.2byte	0x7205
    1492:	08090003          	lb	zero,128(s2)
    1496:	0100                	.2byte	0x100
    1498:	0305                	.2byte	0x305
    149a:	08090003          	lb	zero,128(s2)
    149e:	0100                	.2byte	0x100
    14a0:	3905                	.2byte	0x3905
    14a2:	08090003          	lb	zero,128(s2)
    14a6:	0100                	.2byte	0x100
    14a8:	3b05                	.2byte	0x3b05
    14aa:	04090103          	lb	sp,64(s2)
    14ae:	0100                	.2byte	0x100
    14b0:	7005                	.2byte	0x7005
    14b2:	08090003          	lb	zero,128(s2)
    14b6:	0100                	.2byte	0x100
    14b8:	0305                	.2byte	0x305
    14ba:	08090003          	lb	zero,128(s2)
    14be:	0100                	.2byte	0x100
    14c0:	3805                	.2byte	0x3805
    14c2:	08090003          	lb	zero,128(s2)
    14c6:	0100                	.2byte	0x100
    14c8:	3b05                	.2byte	0x3b05
    14ca:	04090103          	lb	sp,64(s2)
    14ce:	0100                	.2byte	0x100
    14d0:	7005                	.2byte	0x7005
    14d2:	08090003          	lb	zero,128(s2)
    14d6:	0100                	.2byte	0x100
    14d8:	0305                	.2byte	0x305
    14da:	08090003          	lb	zero,128(s2)
    14de:	0100                	.2byte	0x100
    14e0:	3805                	.2byte	0x3805
    14e2:	08090003          	lb	zero,128(s2)
    14e6:	0100                	.2byte	0x100
    14e8:	3505                	.2byte	0x3505
    14ea:	04090103          	lb	sp,64(s2)
    14ee:	0100                	.2byte	0x100
    14f0:	6405                	.2byte	0x6405
    14f2:	04090003          	lb	zero,64(s2)
    14f6:	0100                	.2byte	0x100
    14f8:	0305                	.2byte	0x305
    14fa:	08090003          	lb	zero,128(s2)
    14fe:	0100                	.2byte	0x100
    1500:	3205                	.2byte	0x3205
    1502:	08090003          	lb	zero,128(s2)
    1506:	0100                	.2byte	0x100
    1508:	0305                	.2byte	0x305
    150a:	04090203          	lb	tp,64(s2)
    150e:	0100                	.2byte	0x100
    1510:	3805                	.2byte	0x3805
    1512:	08090003          	lb	zero,128(s2)
    1516:	0100                	.2byte	0x100
    1518:	3b05                	.2byte	0x3b05
    151a:	04090103          	lb	sp,64(s2)
    151e:	0100                	.2byte	0x100
    1520:	7005                	.2byte	0x7005
    1522:	08090003          	lb	zero,128(s2)
    1526:	0100                	.2byte	0x100
    1528:	0305                	.2byte	0x305
    152a:	08090003          	lb	zero,128(s2)
    152e:	0100                	.2byte	0x100
    1530:	3805                	.2byte	0x3805
    1532:	08090003          	lb	zero,128(s2)
    1536:	0100                	.2byte	0x100
    1538:	0f05                	.2byte	0xf05
    153a:	04090203          	lb	tp,64(s2)
    153e:	0100                	.2byte	0x100
    1540:	2605                	.2byte	0x2605
    1542:	0c090103          	lb	sp,192(s2)
    1546:	0100                	.2byte	0x100
    1548:	2d05                	.2byte	0x2d05
    154a:	08090003          	lb	zero,128(s2)
    154e:	0100                	.2byte	0x100
    1550:	0305                	.2byte	0x305
    1552:	04090003          	lb	zero,64(s2)
    1556:	0100                	.2byte	0x100
    1558:	2405                	.2byte	0x2405
    155a:	08090003          	lb	zero,128(s2)
    155e:	0100                	.2byte	0x100
    1560:	2d05                	.2byte	0x2d05
    1562:	04090103          	lb	sp,64(s2)
    1566:	0100                	.2byte	0x100
    1568:	2605                	.2byte	0x2605
    156a:	08090003          	lb	zero,128(s2)
    156e:	0100                	.2byte	0x100
    1570:	3105                	.2byte	0x3105
    1572:	04090003          	lb	zero,64(s2)
    1576:	0100                	.2byte	0x100
    1578:	0305                	.2byte	0x305
    157a:	04090003          	lb	zero,64(s2)
    157e:	0100                	.2byte	0x100
    1580:	2405                	.2byte	0x2405
    1582:	08090003          	lb	zero,128(s2)
    1586:	0100                	.2byte	0x100
    1588:	2d05                	.2byte	0x2d05
    158a:	04090103          	lb	sp,64(s2)
    158e:	0100                	.2byte	0x100
    1590:	2605                	.2byte	0x2605
    1592:	08090003          	lb	zero,128(s2)
    1596:	0100                	.2byte	0x100
    1598:	3105                	.2byte	0x3105
    159a:	04090003          	lb	zero,64(s2)
    159e:	0100                	.2byte	0x100
    15a0:	0305                	.2byte	0x305
    15a2:	04090003          	lb	zero,64(s2)
    15a6:	0100                	.2byte	0x100
    15a8:	2405                	.2byte	0x2405
    15aa:	08090003          	lb	zero,128(s2)
    15ae:	0100                	.2byte	0x100
    15b0:	2d05                	.2byte	0x2d05
    15b2:	04090103          	lb	sp,64(s2)
    15b6:	0100                	.2byte	0x100
    15b8:	2605                	.2byte	0x2605
    15ba:	08090003          	lb	zero,128(s2)
    15be:	0100                	.2byte	0x100
    15c0:	3105                	.2byte	0x3105
    15c2:	04090003          	lb	zero,64(s2)
    15c6:	0100                	.2byte	0x100
    15c8:	0305                	.2byte	0x305
    15ca:	04090003          	lb	zero,64(s2)
    15ce:	0100                	.2byte	0x100
    15d0:	2405                	.2byte	0x2405
    15d2:	08090003          	lb	zero,128(s2)
    15d6:	0100                	.2byte	0x100
    15d8:	2d05                	.2byte	0x2d05
    15da:	04090103          	lb	sp,64(s2)
    15de:	0100                	.2byte	0x100
    15e0:	2605                	.2byte	0x2605
    15e2:	08090003          	lb	zero,128(s2)
    15e6:	0100                	.2byte	0x100
    15e8:	3105                	.2byte	0x3105
    15ea:	04090003          	lb	zero,64(s2)
    15ee:	0100                	.2byte	0x100
    15f0:	0305                	.2byte	0x305
    15f2:	04090003          	lb	zero,64(s2)
    15f6:	0100                	.2byte	0x100
    15f8:	2405                	.2byte	0x2405
    15fa:	08090003          	lb	zero,128(s2)
    15fe:	0100                	.2byte	0x100
    1600:	2d05                	.2byte	0x2d05
    1602:	04090103          	lb	sp,64(s2)
    1606:	0100                	.2byte	0x100
    1608:	2605                	.2byte	0x2605
    160a:	08090003          	lb	zero,128(s2)
    160e:	0100                	.2byte	0x100
    1610:	3105                	.2byte	0x3105
    1612:	04090003          	lb	zero,64(s2)
    1616:	0100                	.2byte	0x100
    1618:	0305                	.2byte	0x305
    161a:	04090003          	lb	zero,64(s2)
    161e:	0100                	.2byte	0x100
    1620:	2405                	.2byte	0x2405
    1622:	08090003          	lb	zero,128(s2)
    1626:	0100                	.2byte	0x100
    1628:	2d05                	.2byte	0x2d05
    162a:	04090103          	lb	sp,64(s2)
    162e:	0100                	.2byte	0x100
    1630:	2605                	.2byte	0x2605
    1632:	08090003          	lb	zero,128(s2)
    1636:	0100                	.2byte	0x100
    1638:	3105                	.2byte	0x3105
    163a:	04090003          	lb	zero,64(s2)
    163e:	0100                	.2byte	0x100
    1640:	0305                	.2byte	0x305
    1642:	04090003          	lb	zero,64(s2)
    1646:	0100                	.2byte	0x100
    1648:	2405                	.2byte	0x2405
    164a:	08090003          	lb	zero,128(s2)
    164e:	0100                	.2byte	0x100
    1650:	2d05                	.2byte	0x2d05
    1652:	04090103          	lb	sp,64(s2)
    1656:	0100                	.2byte	0x100
    1658:	2605                	.2byte	0x2605
    165a:	08090003          	lb	zero,128(s2)
    165e:	0100                	.2byte	0x100
    1660:	3105                	.2byte	0x3105
    1662:	04090003          	lb	zero,64(s2)
    1666:	0100                	.2byte	0x100
    1668:	0305                	.2byte	0x305
    166a:	04090003          	lb	zero,64(s2)
    166e:	0100                	.2byte	0x100
    1670:	2405                	.2byte	0x2405
    1672:	08090003          	lb	zero,128(s2)
    1676:	0100                	.2byte	0x100
    1678:	2d05                	.2byte	0x2d05
    167a:	04090103          	lb	sp,64(s2)
    167e:	0100                	.2byte	0x100
    1680:	2605                	.2byte	0x2605
    1682:	08090003          	lb	zero,128(s2)
    1686:	0100                	.2byte	0x100
    1688:	3105                	.2byte	0x3105
    168a:	04090003          	lb	zero,64(s2)
    168e:	0100                	.2byte	0x100
    1690:	0305                	.2byte	0x305
    1692:	04090003          	lb	zero,64(s2)
    1696:	0100                	.2byte	0x100
    1698:	2405                	.2byte	0x2405
    169a:	08090003          	lb	zero,128(s2)
    169e:	0100                	.2byte	0x100
    16a0:	2d05                	.2byte	0x2d05
    16a2:	04090103          	lb	sp,64(s2)
    16a6:	0100                	.2byte	0x100
    16a8:	2605                	.2byte	0x2605
    16aa:	08090003          	lb	zero,128(s2)
    16ae:	0100                	.2byte	0x100
    16b0:	3105                	.2byte	0x3105
    16b2:	04090003          	lb	zero,64(s2)
    16b6:	0100                	.2byte	0x100
    16b8:	0305                	.2byte	0x305
    16ba:	04090003          	lb	zero,64(s2)
    16be:	0100                	.2byte	0x100
    16c0:	2405                	.2byte	0x2405
    16c2:	08090003          	lb	zero,128(s2)
    16c6:	0100                	.2byte	0x100
    16c8:	2605                	.2byte	0x2605
    16ca:	04090203          	lb	tp,64(s2)
    16ce:	0100                	.2byte	0x100
    16d0:	2d05                	.2byte	0x2d05
    16d2:	08090003          	lb	zero,128(s2)
    16d6:	0100                	.2byte	0x100
    16d8:	0305                	.2byte	0x305
    16da:	04090003          	lb	zero,64(s2)
    16de:	0100                	.2byte	0x100
    16e0:	2405                	.2byte	0x2405
    16e2:	08090003          	lb	zero,128(s2)
    16e6:	0100                	.2byte	0x100
    16e8:	0305                	.2byte	0x305
    16ea:	04090303          	lb	t1,64(s2)
    16ee:	0100                	.2byte	0x100
    16f0:	3205                	.2byte	0x3205
    16f2:	08090003          	lb	zero,128(s2)
    16f6:	0100                	.2byte	0x100
    16f8:	0705                	.2byte	0x705
    16fa:	08090203          	lb	tp,128(s2)
    16fe:	0100                	.2byte	0x100
    1700:	2805                	.2byte	0x2805
    1702:	08090003          	lb	zero,128(s2)
    1706:	0100                	.2byte	0x100
    1708:	0705                	.2byte	0x705
    170a:	0c090103          	lb	sp,192(s2)
    170e:	0100                	.2byte	0x100
    1710:	2805                	.2byte	0x2805
    1712:	08090003          	lb	zero,128(s2)
    1716:	0100                	.2byte	0x100
    1718:	0705                	.2byte	0x705
    171a:	0c090103          	lb	sp,192(s2)
    171e:	0100                	.2byte	0x100
    1720:	2805                	.2byte	0x2805
    1722:	08090003          	lb	zero,128(s2)
    1726:	0100                	.2byte	0x100
    1728:	0705                	.2byte	0x705
    172a:	0c090103          	lb	sp,192(s2)
    172e:	0100                	.2byte	0x100
    1730:	2805                	.2byte	0x2805
    1732:	08090003          	lb	zero,128(s2)
    1736:	0100                	.2byte	0x100
    1738:	0705                	.2byte	0x705
    173a:	0c090103          	lb	sp,192(s2)
    173e:	0100                	.2byte	0x100
    1740:	2805                	.2byte	0x2805
    1742:	08090003          	lb	zero,128(s2)
    1746:	0100                	.2byte	0x100
    1748:	0705                	.2byte	0x705
    174a:	0c090103          	lb	sp,192(s2)
    174e:	0100                	.2byte	0x100
    1750:	2805                	.2byte	0x2805
    1752:	08090003          	lb	zero,128(s2)
    1756:	0100                	.2byte	0x100
    1758:	0705                	.2byte	0x705
    175a:	0c090103          	lb	sp,192(s2)
    175e:	0100                	.2byte	0x100
    1760:	2805                	.2byte	0x2805
    1762:	08090003          	lb	zero,128(s2)
    1766:	0100                	.2byte	0x100
    1768:	0705                	.2byte	0x705
    176a:	0c090103          	lb	sp,192(s2)
    176e:	0100                	.2byte	0x100
    1770:	2805                	.2byte	0x2805
    1772:	08090003          	lb	zero,128(s2)
    1776:	0100                	.2byte	0x100
    1778:	0705                	.2byte	0x705
    177a:	0c090103          	lb	sp,192(s2)
    177e:	0100                	.2byte	0x100
    1780:	2805                	.2byte	0x2805
    1782:	08090003          	lb	zero,128(s2)
    1786:	0100                	.2byte	0x100
    1788:	0705                	.2byte	0x705
    178a:	0c090103          	lb	sp,192(s2)
    178e:	0100                	.2byte	0x100
    1790:	2805                	.2byte	0x2805
    1792:	08090003          	lb	zero,128(s2)
    1796:	0100                	.2byte	0x100
    1798:	0705                	.2byte	0x705
    179a:	0c090103          	lb	sp,192(s2)
    179e:	0100                	.2byte	0x100
    17a0:	2805                	.2byte	0x2805
    17a2:	08090003          	lb	zero,128(s2)
    17a6:	0100                	.2byte	0x100
    17a8:	0705                	.2byte	0x705
    17aa:	0c090103          	lb	sp,192(s2)
    17ae:	0100                	.2byte	0x100
    17b0:	2805                	.2byte	0x2805
    17b2:	08090003          	lb	zero,128(s2)
    17b6:	0100                	.2byte	0x100
    17b8:	0705                	.2byte	0x705
    17ba:	0c090103          	lb	sp,192(s2)
    17be:	0100                	.2byte	0x100
    17c0:	2805                	.2byte	0x2805
    17c2:	08090003          	lb	zero,128(s2)
    17c6:	0100                	.2byte	0x100
    17c8:	0705                	.2byte	0x705
    17ca:	0c090103          	lb	sp,192(s2)
    17ce:	0100                	.2byte	0x100
    17d0:	2805                	.2byte	0x2805
    17d2:	08090003          	lb	zero,128(s2)
    17d6:	0100                	.2byte	0x100
    17d8:	0705                	.2byte	0x705
    17da:	0c090103          	lb	sp,192(s2)
    17de:	0100                	.2byte	0x100
    17e0:	2805                	.2byte	0x2805
    17e2:	08090003          	lb	zero,128(s2)
    17e6:	0100                	.2byte	0x100
    17e8:	0705                	.2byte	0x705
    17ea:	0c090103          	lb	sp,192(s2)
    17ee:	0100                	.2byte	0x100
    17f0:	2805                	.2byte	0x2805
    17f2:	08090003          	lb	zero,128(s2)
    17f6:	0100                	.2byte	0x100
    17f8:	0705                	.2byte	0x705
    17fa:	0c090203          	lb	tp,192(s2)
    17fe:	0100                	.2byte	0x100
    1800:	2805                	.2byte	0x2805
    1802:	08090003          	lb	zero,128(s2)
    1806:	0100                	.2byte	0x100
    1808:	0705                	.2byte	0x705
    180a:	0c090103          	lb	sp,192(s2)
    180e:	0100                	.2byte	0x100
    1810:	2805                	.2byte	0x2805
    1812:	08090003          	lb	zero,128(s2)
    1816:	0100                	.2byte	0x100
    1818:	0705                	.2byte	0x705
    181a:	0c090103          	lb	sp,192(s2)
    181e:	0100                	.2byte	0x100
    1820:	2805                	.2byte	0x2805
    1822:	08090003          	lb	zero,128(s2)
    1826:	0100                	.2byte	0x100
    1828:	0705                	.2byte	0x705
    182a:	0c090103          	lb	sp,192(s2)
    182e:	0100                	.2byte	0x100
    1830:	2805                	.2byte	0x2805
    1832:	08090003          	lb	zero,128(s2)
    1836:	0100                	.2byte	0x100
    1838:	0705                	.2byte	0x705
    183a:	0c090103          	lb	sp,192(s2)
    183e:	0100                	.2byte	0x100
    1840:	2805                	.2byte	0x2805
    1842:	08090003          	lb	zero,128(s2)
    1846:	0100                	.2byte	0x100
    1848:	0705                	.2byte	0x705
    184a:	0c090103          	lb	sp,192(s2)
    184e:	0100                	.2byte	0x100
    1850:	2805                	.2byte	0x2805
    1852:	08090003          	lb	zero,128(s2)
    1856:	0100                	.2byte	0x100
    1858:	0705                	.2byte	0x705
    185a:	0c090103          	lb	sp,192(s2)
    185e:	0100                	.2byte	0x100
    1860:	2805                	.2byte	0x2805
    1862:	08090003          	lb	zero,128(s2)
    1866:	0100                	.2byte	0x100
    1868:	0705                	.2byte	0x705
    186a:	0c090103          	lb	sp,192(s2)
    186e:	0100                	.2byte	0x100
    1870:	2805                	.2byte	0x2805
    1872:	08090003          	lb	zero,128(s2)
    1876:	0100                	.2byte	0x100
    1878:	0705                	.2byte	0x705
    187a:	0c090103          	lb	sp,192(s2)
    187e:	0100                	.2byte	0x100
    1880:	2805                	.2byte	0x2805
    1882:	08090003          	lb	zero,128(s2)
    1886:	0100                	.2byte	0x100
    1888:	0705                	.2byte	0x705
    188a:	0c090103          	lb	sp,192(s2)
    188e:	0100                	.2byte	0x100
    1890:	2805                	.2byte	0x2805
    1892:	08090003          	lb	zero,128(s2)
    1896:	0100                	.2byte	0x100
    1898:	0705                	.2byte	0x705
    189a:	0c090103          	lb	sp,192(s2)
    189e:	0100                	.2byte	0x100
    18a0:	2805                	.2byte	0x2805
    18a2:	08090003          	lb	zero,128(s2)
    18a6:	0100                	.2byte	0x100
    18a8:	0705                	.2byte	0x705
    18aa:	0c090103          	lb	sp,192(s2)
    18ae:	0100                	.2byte	0x100
    18b0:	2805                	.2byte	0x2805
    18b2:	08090003          	lb	zero,128(s2)
    18b6:	0100                	.2byte	0x100
    18b8:	0705                	.2byte	0x705
    18ba:	0c090103          	lb	sp,192(s2)
    18be:	0100                	.2byte	0x100
    18c0:	2805                	.2byte	0x2805
    18c2:	08090003          	lb	zero,128(s2)
    18c6:	0100                	.2byte	0x100
    18c8:	0705                	.2byte	0x705
    18ca:	0c090103          	lb	sp,192(s2)
    18ce:	0100                	.2byte	0x100
    18d0:	2805                	.2byte	0x2805
    18d2:	08090003          	lb	zero,128(s2)
    18d6:	0100                	.2byte	0x100
    18d8:	0705                	.2byte	0x705
    18da:	0c090203          	lb	tp,192(s2)
    18de:	0100                	.2byte	0x100
    18e0:	2805                	.2byte	0x2805
    18e2:	08090003          	lb	zero,128(s2)
    18e6:	0100                	.2byte	0x100
    18e8:	0705                	.2byte	0x705
    18ea:	0c090103          	lb	sp,192(s2)
    18ee:	0100                	.2byte	0x100
    18f0:	2805                	.2byte	0x2805
    18f2:	08090003          	lb	zero,128(s2)
    18f6:	0100                	.2byte	0x100
    18f8:	0305                	.2byte	0x305
    18fa:	08090403          	lb	s0,128(s2)
    18fe:	0100                	.2byte	0x100
    1900:	2405                	.2byte	0x2405
    1902:	04090003          	lb	zero,64(s2)
    1906:	0100                	.2byte	0x100
    1908:	0805                	.2byte	0x805
    190a:	08090103          	lb	sp,128(s2)
    190e:	0100                	.2byte	0x100
    1910:	0a05                	.2byte	0xa05
    1912:	0200                	.2byte	0x200
    1914:	0104                	.2byte	0x104
    1916:	04090003          	lb	zero,64(s2)
    191a:	0100                	.2byte	0x100
    191c:	2b05                	.2byte	0x2b05
    191e:	0200                	.2byte	0x200
    1920:	0104                	.2byte	0x104
    1922:	08090003          	lb	zero,128(s2)
    1926:	0100                	.2byte	0x100
    1928:	3c05                	.2byte	0x3c05
    192a:	08090403          	lb	s0,128(s2)
    192e:	0100                	.2byte	0x100
    1930:	7205                	.2byte	0x7205
    1932:	08090003          	lb	zero,128(s2)
    1936:	0100                	.2byte	0x100
    1938:	0305                	.2byte	0x305
    193a:	08090003          	lb	zero,128(s2)
    193e:	0100                	.2byte	0x100
    1940:	3905                	.2byte	0x3905
    1942:	08090003          	lb	zero,128(s2)
    1946:	0100                	.2byte	0x100
    1948:	3b05                	.2byte	0x3b05
    194a:	04090103          	lb	sp,64(s2)
    194e:	0100                	.2byte	0x100
    1950:	7005                	.2byte	0x7005
    1952:	08090003          	lb	zero,128(s2)
    1956:	0100                	.2byte	0x100
    1958:	0305                	.2byte	0x305
    195a:	08090003          	lb	zero,128(s2)
    195e:	0100                	.2byte	0x100
    1960:	3805                	.2byte	0x3805
    1962:	08090003          	lb	zero,128(s2)
    1966:	0100                	.2byte	0x100
    1968:	3b05                	.2byte	0x3b05
    196a:	04090103          	lb	sp,64(s2)
    196e:	0100                	.2byte	0x100
    1970:	7005                	.2byte	0x7005
    1972:	08090003          	lb	zero,128(s2)
    1976:	0100                	.2byte	0x100
    1978:	0305                	.2byte	0x305
    197a:	08090003          	lb	zero,128(s2)
    197e:	0100                	.2byte	0x100
    1980:	3805                	.2byte	0x3805
    1982:	08090003          	lb	zero,128(s2)
    1986:	0100                	.2byte	0x100
    1988:	3505                	.2byte	0x3505
    198a:	04090103          	lb	sp,64(s2)
    198e:	0100                	.2byte	0x100
    1990:	6405                	.2byte	0x6405
    1992:	04090003          	lb	zero,64(s2)
    1996:	0100                	.2byte	0x100
    1998:	0305                	.2byte	0x305
    199a:	08090003          	lb	zero,128(s2)
    199e:	0100                	.2byte	0x100
    19a0:	3205                	.2byte	0x3205
    19a2:	08090003          	lb	zero,128(s2)
    19a6:	0100                	.2byte	0x100
    19a8:	0305                	.2byte	0x305
    19aa:	04090603          	lb	a2,64(s2)
    19ae:	0100                	.2byte	0x100
    19b0:	3805                	.2byte	0x3805
    19b2:	08090003          	lb	zero,128(s2)
    19b6:	0100                	.2byte	0x100
    19b8:	3b05                	.2byte	0x3b05
    19ba:	04090303          	lb	t1,64(s2)
    19be:	0100                	.2byte	0x100
    19c0:	7005                	.2byte	0x7005
    19c2:	08090003          	lb	zero,128(s2)
    19c6:	0100                	.2byte	0x100
    19c8:	0305                	.2byte	0x305
    19ca:	08090003          	lb	zero,128(s2)
    19ce:	0100                	.2byte	0x100
    19d0:	3805                	.2byte	0x3805
    19d2:	08090003          	lb	zero,128(s2)
    19d6:	0100                	.2byte	0x100
    19d8:	0305                	.2byte	0x305
    19da:	04090203          	lb	tp,64(s2)
    19de:	0100                	.2byte	0x100
    19e0:	2405                	.2byte	0x2405
    19e2:	08090003          	lb	zero,128(s2)
    19e6:	0100                	.2byte	0x100
    19e8:	0105                	.2byte	0x105
    19ea:	08090903          	lb	s2,128(s2)
    19ee:	0100                	.2byte	0x100
    19f0:	1409                	.2byte	0x1409
    19f2:	0000                	.2byte	0x0
    19f4:	0101                	.2byte	0x101
    19f6:	0076                	.2byte	0x76
    19f8:	0000                	.2byte	0x0
    19fa:	0005                	.2byte	0x5
    19fc:	0004                	.2byte	0x4
    19fe:	002e                	.2byte	0x2e
    1a00:	0000                	.2byte	0x0
    1a02:	0101                	.2byte	0x101
    1a04:	fb01                	.2byte	0xfb01
    1a06:	0d0e                	.2byte	0xd0e
    1a08:	0100                	.2byte	0x100
    1a0a:	0101                	.2byte	0x101
    1a0c:	0001                	.2byte	0x1
    1a0e:	0000                	.2byte	0x0
    1a10:	0001                	.2byte	0x1
    1a12:	0100                	.2byte	0x100
    1a14:	0101                	.2byte	0x101
    1a16:	021f 0104 0000      	.byte	0x1f, 0x02, 0x04, 0x01, 0x00, 0x00
    1a1c:	00000157          	.4byte	0x157
    1a20:	0102                	.2byte	0x102
    1a22:	021f 020f 018f      	.byte	0x1f, 0x02, 0x0f, 0x02, 0x8f, 0x01
    1a28:	0000                	.2byte	0x0
    1a2a:	8f01                	.2byte	0x8f01
    1a2c:	0001                	.2byte	0x1
    1a2e:	0100                	.2byte	0x100
    1a30:	0500                	.2byte	0x500
    1a32:	0002                	.2byte	0x2
    1a34:	0000                	.2byte	0x0
    1a36:	0338                	.2byte	0x338
    1a38:	0124                	.2byte	0x124
    1a3a:	04090103          	lb	sp,64(s2)
    1a3e:	0100                	.2byte	0x100
    1a40:	04090203          	lb	tp,64(s2)
    1a44:	0100                	.2byte	0x100
    1a46:	04090103          	lb	sp,64(s2)
    1a4a:	0100                	.2byte	0x100
    1a4c:	04090103          	lb	sp,64(s2)
    1a50:	0100                	.2byte	0x100
    1a52:	04090203          	lb	tp,64(s2)
    1a56:	0100                	.2byte	0x100
    1a58:	04090103          	lb	sp,64(s2)
    1a5c:	0100                	.2byte	0x100
    1a5e:	04090103          	lb	sp,64(s2)
    1a62:	0100                	.2byte	0x100
    1a64:	04090103          	lb	sp,64(s2)
    1a68:	0100                	.2byte	0x100
    1a6a:	0409                	.2byte	0x409
    1a6c:	0000                	.2byte	0x0
    1a6e:	0101                	.2byte	0x101

Disassembly of section .debug_line_str:

00000000 <.debug_line_str>:
   0:	6d6f682f          	.4byte	0x6d6f682f
   4:	2f65                	.2byte	0x2f65
   6:	6275                	.2byte	0x6275
   8:	6e75                	.2byte	0x6e75
   a:	7574                	.2byte	0x7574
   c:	776f442f          	.4byte	0x776f442f
  10:	6c6e                	.2byte	0x6c6e
  12:	7364616f          	jal	sp,46748 <_fstack+0x46148>
  16:	436f532f          	.4byte	0x436f532f
  1a:	756f632f          	.4byte	0x756f632f
  1e:	7372                	.2byte	0x7372
  20:	2d65                	.2byte	0x2d65
  22:	616c                	.2byte	0x616c
  24:	5f62                	.2byte	0x5f62
  26:	2d36                	.2byte	0x2d36
  28:	3032                	.2byte	0x3032
  2a:	3232                	.2byte	0x3232
  2c:	312e                	.2byte	0x312e
  2e:	62616c2f          	.4byte	0x62616c2f
  32:	772d                	.2byte	0x772d
  34:	6f6c                	.2byte	0x6f6c
  36:	61625f73          	csrrwi	t5,0x616,4
  3a:	696c6573          	csrrsi	a0,0x696,24
  3e:	656e                	.2byte	0x656e
  40:	7365742f          	.4byte	0x7365742f
  44:	6274                	.2byte	0x6274
  46:	6e65                	.2byte	0x6e65
  48:	4c2f6863          	bltu	t5,sp,518 <_ebss+0x380>
  4c:	6261                	.2byte	0x6261
  4e:	2d36                	.2byte	0x2d36
  50:	616d                	.2byte	0x616d
  52:	6e69                	.2byte	0x6e69
  54:	2e00                	.2byte	0x2e00
  56:	2f2e                	.2byte	0x2f2e
  58:	2e2e                	.2byte	0x2e2e
  5a:	7269662f          	.4byte	0x7269662f
  5e:	776d                	.2byte	0x776d
  60:	7261                	.2byte	0x7261
  62:	0065                	.2byte	0x65
  64:	30747263          	bgeu	s0,t2,368 <_ebss+0x1d0>
  68:	765f 7865 532e      	.byte	0x5f, 0x76, 0x65, 0x78, 0x2e, 0x53
  6e:	2e00                	.2byte	0x2e00
  70:	2f2e                	.2byte	0x2f2e
  72:	2e2e                	.2byte	0x2e2e
  74:	7269662f          	.4byte	0x7269662f
  78:	776d                	.2byte	0x776d
  7a:	7261                	.2byte	0x7261
  7c:	2f65                	.2byte	0x2f65
  7e:	7369                	.2byte	0x7369
  80:	2e72                	.2byte	0x2e72
  82:	79730063          	beq	t1,s7,802 <_fstack+0x202>
  86:	6d657473          	csrrci	s0,0x6d6,10
  8a:	682e                	.2byte	0x682e
  8c:	6900                	.2byte	0x6900
  8e:	7172                	.2byte	0x7172
  90:	765f 7865 682e      	.byte	0x5f, 0x76, 0x65, 0x78, 0x2e, 0x68
  96:	6b00                	.2byte	0x6b00
  98:	6175                	.2byte	0x6175
  9a:	7472                	.2byte	0x7472
  9c:	632e                	.2byte	0x632e
  9e:	2f00                	.2byte	0x2f00
  a0:	2f74706f          	j	47b96 <_fstack+0x47596>
  a4:	6972                	.2byte	0x6972
  a6:	2f766373          	csrrsi	t1,0x2f7,12
  aa:	696c                	.2byte	0x696c
  ac:	2f62                	.2byte	0x2f62
  ae:	2f636367          	.4byte	0x2f636367
  b2:	6972                	.2byte	0x6972
  b4:	33766373          	csrrsi	t1,mhpmevent23,12
  b8:	2d32                	.2byte	0x2d32
  ba:	6e75                	.2byte	0x6e75
  bc:	776f6e6b          	.4byte	0x776f6e6b
  c0:	2d6e                	.2byte	0x2d6e
  c2:	6c65                	.2byte	0x6c65
  c4:	2f66                	.2byte	0x2f66
  c6:	3231                	.2byte	0x3231
  c8:	312e                	.2byte	0x312e
  ca:	302e                	.2byte	0x302e
  cc:	636e692f          	.4byte	0x636e692f
  d0:	756c                	.2byte	0x756c
  d2:	6564                	.2byte	0x6564
  d4:	6b00                	.2byte	0x6b00
  d6:	6175                	.2byte	0x6175
  d8:	7472                	.2byte	0x7472
  da:	682e                	.2byte	0x682e
  dc:	7300                	.2byte	0x7300
  de:	6474                	.2byte	0x6474
  e0:	6e69                	.2byte	0x6e69
  e2:	2d74                	.2byte	0x2d74
  e4:	2e636367          	.4byte	0x2e636367
  e8:	0068                	.2byte	0x68
  ea:	756f636b          	.4byte	0x756f636b
  ee:	746e                	.2byte	0x746e
  f0:	7265                	.2byte	0x7265
  f2:	6c5f 5f61 6175      	.byte	0x5f, 0x6c, 0x61, 0x5f, 0x75, 0x61
  f8:	7472                	.2byte	0x7472
  fa:	632e                	.2byte	0x632e
  fc:	7300                	.2byte	0x7300
  fe:	7574                	.2byte	0x7574
 100:	2e62                	.2byte	0x2e62
 102:	742f0063          	beq	t5,sp,842 <_fstack+0x242>
 106:	706d                	.2byte	0x706d
 108:	5f76722f          	.4byte	0x5f76722f
 10c:	2f636367          	.4byte	0x2f636367
 110:	6972                	.2byte	0x6972
 112:	2d766373          	csrrsi	t1,0x2d7,12
 116:	2d756e67          	.4byte	0x2d756e67
 11a:	6f74                	.2byte	0x6f74
 11c:	68636c6f          	jal	s8,367a2 <_fstack+0x361a2>
 120:	6961                	.2byte	0x6961
 122:	2f6e                	.2byte	0x2f6e
 124:	7562                	.2byte	0x7562
 126:	6c69                	.2byte	0x6c69
 128:	2d64                	.2byte	0x2d64
 12a:	2d636367          	.4byte	0x2d636367
 12e:	656e                	.2byte	0x656e
 130:	62696c77          	.4byte	0x62696c77
 134:	732d                	.2byte	0x732d
 136:	6174                	.2byte	0x6174
 138:	2f326567          	.4byte	0x2f326567
 13c:	6972                	.2byte	0x6972
 13e:	33766373          	csrrsi	t1,mhpmevent23,12
 142:	2d32                	.2byte	0x2d32
 144:	6e75                	.2byte	0x6e75
 146:	776f6e6b          	.4byte	0x776f6e6b
 14a:	2d6e                	.2byte	0x2d6e
 14c:	6c65                	.2byte	0x6c65
 14e:	2f66                	.2byte	0x2f66
 150:	696c                	.2byte	0x696c
 152:	6762                	.2byte	0x6762
 154:	2f006363          	bltu	zero,a6,43a <_ebss+0x2a2>
 158:	6d74                	.2byte	0x6d74
 15a:	2f70                	.2byte	0x2f70
 15c:	7672                	.2byte	0x7672
 15e:	675f 6363 722f      	.byte	0x5f, 0x67, 0x63, 0x63, 0x2f, 0x72
 164:	7369                	.2byte	0x7369
 166:	672d7663          	bgeu	s10,s2,7d2 <_fstack+0x1d2>
 16a:	756e                	.2byte	0x756e
 16c:	742d                	.2byte	0x742d
 16e:	636c6f6f          	jal	t5,c67a4 <_fstack+0xc61a4>
 172:	6168                	.2byte	0x6168
 174:	6e69                	.2byte	0x6e69
 176:	6363672f          	.4byte	0x6363672f
 17a:	62696c2f          	.4byte	0x62696c2f
 17e:	2f636367          	.4byte	0x2f636367
 182:	666e6f63          	bltu	t3,t1,800 <_fstack+0x200>
 186:	6769                	.2byte	0x6769
 188:	7369722f          	.4byte	0x7369722f
 18c:	6d007663          	bgeu	zero,a6,858 <_fstack+0x258>
 190:	6c75                	.2byte	0x6c75
 192:	6964                	.2byte	0x6964
 194:	00532e33          	slt	t3,t1,t0

Disassembly of section .debug_info:

00000000 <.debug_info>:
   0:	0021                	.2byte	0x21
   2:	0000                	.2byte	0x0
   4:	0005                	.2byte	0x5
   6:	0401                	.2byte	0x401
   8:	0000                	.2byte	0x0
   a:	0000                	.2byte	0x0
   c:	0001                	.2byte	0x1
   e:	0000                	.2byte	0x0
  10:	0000                	.2byte	0x0
  12:	0000                	.2byte	0x0
  14:	e010                	.2byte	0xe010
  16:	0002                	.2byte	0x2
  18:	0000                	.2byte	0x0
  1a:	1a00                	.2byte	0x1a00
  1c:	0000                	.2byte	0x0
  1e:	6f00                	.2byte	0x6f00
  20:	0000                	.2byte	0x0
  22:	0100                	.2byte	0x100
  24:	c180                	.2byte	0xc180
  26:	0000                	.2byte	0x0
  28:	0500                	.2byte	0x500
  2a:	0100                	.2byte	0x100
  2c:	1404                	.2byte	0x1404
  2e:	0000                	.2byte	0x0
  30:	0300                	.2byte	0x300
  32:	00ad                	.2byte	0xad
  34:	0000                	.2byte	0x0
  36:	6f1d                	.2byte	0x6f1d
  38:	0000                	.2byte	0x0
  3a:	0000                	.2byte	0x0
  3c:	0000                	.2byte	0x0
  3e:	4400                	.2byte	0x4400
  40:	0001                	.2byte	0x1
  42:	8c10                	.2byte	0x8c10
  44:	0000                	.2byte	0x0
  46:	0400                	.2byte	0x400
  48:	0002                	.2byte	0x2
  4a:	0100                	.2byte	0x100
  4c:	0601                	.2byte	0x601
  4e:	008e                	.2byte	0x8e
  50:	0000                	.2byte	0x0
  52:	0201                	.2byte	0x201
  54:	4605                	.2byte	0x4605
  56:	0001                	.2byte	0x1
  58:	0100                	.2byte	0x100
  5a:	0504                	.2byte	0x504
  5c:	013d                	.2byte	0x13d
  5e:	0000                	.2byte	0x0
  60:	0801                	.2byte	0x801
  62:	3805                	.2byte	0x3805
  64:	0001                	.2byte	0x1
  66:	0100                	.2byte	0x100
  68:	0801                	.2byte	0x801
  6a:	008c                	.2byte	0x8c
  6c:	0000                	.2byte	0x0
  6e:	0201                	.2byte	0x201
  70:	00009a07          	.4byte	0x9a07
  74:	0100                	.2byte	0x100
  76:	0704                	.2byte	0x704
  78:	0115                	.2byte	0x115
  7a:	0000                	.2byte	0x0
  7c:	0801                	.2byte	0x801
  7e:	00011007          	.4byte	0x11007
  82:	0400                	.2byte	0x400
  84:	0504                	.2byte	0x504
  86:	6e69                	.2byte	0x6e69
  88:	0074                	.2byte	0x74
  8a:	0401                	.2byte	0x401
  8c:	00011a07          	.4byte	0x11a07
  90:	0500                	.2byte	0x500
  92:	7369                	.2byte	0x7369
  94:	0072                	.2byte	0x72
  96:	a4061703          	lh	a4,-1472(a2)
  9a:	0001                	.2byte	0x1
  9c:	2c10                	.2byte	0x2c10
  9e:	0000                	.2byte	0x0
  a0:	0100                	.2byte	0x100
  a2:	069c                	.2byte	0x69c
  a4:	0104                	.2byte	0x104
  a6:	0000                	.2byte	0x0
  a8:	1d02                	.2byte	0x1d02
  aa:	7c14                	.2byte	0x7c14
  ac:	0001                	.2byte	0x1
  ae:	2810                	.2byte	0x2810
  b0:	0000                	.2byte	0x0
  b2:	0100                	.2byte	0x100
  b4:	a49c                	.2byte	0xa49c
  b6:	0000                	.2byte	0x0
  b8:	0700                	.2byte	0x700
  ba:	0000010b          	.4byte	0x10b
  be:	1d02                	.2byte	0x1d02
  c0:	652d                	.2byte	0x652d
  c2:	0000                	.2byte	0x0
  c4:	0200                	.2byte	0x200
  c6:	6c91                	.2byte	0x6c91
  c8:	0200                	.2byte	0x200
  ca:	0000007b          	.4byte	0x7b
  ce:	601c                	.2byte	0x601c
  d0:	0001                	.2byte	0x1
  d2:	1c10                	.2byte	0x1c10
  d4:	0000                	.2byte	0x0
  d6:	0100                	.2byte	0x100
  d8:	029c                	.2byte	0x29c
  da:	00000127          	.4byte	0x127
  de:	440e                	.2byte	0x440e
  e0:	0001                	.2byte	0x1
  e2:	1c10                	.2byte	0x1c10
  e4:	0000                	.2byte	0x0
  e6:	0100                	.2byte	0x100
  e8:	009c                	.2byte	0x9c
  ea:	0435                	.2byte	0x435
  ec:	0000                	.2byte	0x0
  ee:	0005                	.2byte	0x5
  f0:	0401                	.2byte	0x401
  f2:	009a                	.2byte	0x9a
  f4:	0000                	.2byte	0x0
  f6:	ad0e                	.2byte	0xad0e
  f8:	0000                	.2byte	0x0
  fa:	1d00                	.2byte	0x1d00
  fc:	00000097          	auipc	ra,0x0
 100:	0000                	.2byte	0x0
 102:	0000                	.2byte	0x0
 104:	000c                	.2byte	0xc
 106:	0000                	.2byte	0x0
 108:	0000                	.2byte	0x0
 10a:	0000                	.2byte	0x0
 10c:	02a2                	.2byte	0x2a2
 10e:	0000                	.2byte	0x0
 110:	0102                	.2byte	0x102
 112:	8e06                	.2byte	0x8e06
 114:	0000                	.2byte	0x0
 116:	0200                	.2byte	0x200
 118:	0502                	.2byte	0x502
 11a:	0146                	.2byte	0x146
 11c:	0000                	.2byte	0x0
 11e:	0402                	.2byte	0x402
 120:	3d05                	.2byte	0x3d05
 122:	0001                	.2byte	0x1
 124:	0200                	.2byte	0x200
 126:	0508                	.2byte	0x508
 128:	0138                	.2byte	0x138
 12a:	0000                	.2byte	0x0
 12c:	0102                	.2byte	0x102
 12e:	8c08                	.2byte	0x8c08
 130:	0000                	.2byte	0x0
 132:	0200                	.2byte	0x200
 134:	0702                	.2byte	0x702
 136:	009a                	.2byte	0x9a
 138:	0000                	.2byte	0x0
 13a:	0002080f          	.4byte	0x2080f
 13e:	0400                	.2byte	0x400
 140:	1b34                	.2byte	0x1b34
 142:	005c                	.2byte	0x5c
 144:	0000                	.2byte	0x0
 146:	0402                	.2byte	0x402
 148:	00011507          	.4byte	0x11507
 14c:	0200                	.2byte	0x200
 14e:	0708                	.2byte	0x708
 150:	0110                	.2byte	0x110
 152:	0000                	.2byte	0x0
 154:	0410                	.2byte	0x410
 156:	6905                	.2byte	0x6905
 158:	746e                	.2byte	0x746e
 15a:	0200                	.2byte	0x200
 15c:	0704                	.2byte	0x704
 15e:	011a                	.2byte	0x11a
 160:	0000                	.2byte	0x0
 162:	00006a07          	.4byte	0x6a07
 166:	8800                	.2byte	0x8800
 168:	0000                	.2byte	0x0
 16a:	0800                	.2byte	0x800
 16c:	0071                	.2byte	0x71
 16e:	0000                	.2byte	0x0
 170:	000a                	.2byte	0xa
 172:	ac05                	.2byte	0xac05
 174:	0001                	.2byte	0x1
 176:	0700                	.2byte	0x700
 178:	7805                	.2byte	0x7805
 17a:	0000                	.2byte	0x0
 17c:	0500                	.2byte	0x500
 17e:	00000003          	lb	zero,0(zero) # 0 <taps>
 182:	0500                	.2byte	0x500
 184:	000001c3          	.4byte	0x1c3
 188:	0508                	.2byte	0x508
 18a:	0078                	.2byte	0x78
 18c:	0000                	.2byte	0x0
 18e:	0305                	.2byte	0x305
 190:	0100                	.2byte	0x100
 192:	0000                	.2byte	0x0
 194:	5005                	.2byte	0x5005
 196:	0001                	.2byte	0x1
 198:	0900                	.2byte	0x900
 19a:	7805                	.2byte	0x7805
 19c:	0000                	.2byte	0x0
 19e:	0500                	.2byte	0x500
 1a0:	00002c03          	lw	s8,0(zero) # 0 <taps>
 1a4:	0500                	.2byte	0x500
 1a6:	01df 0000 050a      	.byte	0xdf, 0x01, 0x00, 0x00, 0x0a, 0x05
 1ac:	0078                	.2byte	0x78
 1ae:	0000                	.2byte	0x0
 1b0:	0305                	.2byte	0x305
 1b2:	012c                	.2byte	0x12c
 1b4:	0000                	.2byte	0x0
 1b6:	00006a07          	.4byte	0x6a07
 1ba:	dc00                	.2byte	0xdc00
 1bc:	0000                	.2byte	0x0
 1be:	0800                	.2byte	0x800
 1c0:	0071                	.2byte	0x71
 1c2:	0000                	.2byte	0x0
 1c4:	4109000f          	.4byte	0x4109000f
 1c8:	1200                	.2byte	0x1200
 1ca:	cc06                	.2byte	0xcc06
 1cc:	0000                	.2byte	0x0
 1ce:	0500                	.2byte	0x500
 1d0:	00005803          	lhu	a6,0(zero) # 0 <taps>
 1d4:	0900                	.2byte	0x900
 1d6:	0042                	.2byte	0x42
 1d8:	00cc0617          	auipc	a2,0xcc0
 1dc:	0000                	.2byte	0x0
 1de:	0305                	.2byte	0x305
 1e0:	0098                	.2byte	0x98
 1e2:	0000                	.2byte	0x0
 1e4:	b105                	.2byte	0xb105
 1e6:	0001                	.2byte	0x1
 1e8:	1c00                	.2byte	0x1c00
 1ea:	cc06                	.2byte	0xcc06
 1ec:	0000                	.2byte	0x0
 1ee:	0500                	.2byte	0x500
 1f0:	00015803          	lhu	a6,0(sp)
 1f4:	0700                	.2byte	0x700
 1f6:	006a                	.2byte	0x6a
 1f8:	0000                	.2byte	0x0
 1fa:	0000011b          	.4byte	0x11b
 1fe:	7108                	.2byte	0x7108
 200:	0000                	.2byte	0x0
 202:	0900                	.2byte	0x900
 204:	0900                	.2byte	0x900
 206:	5f41                	.2byte	0x5f41
 208:	0051                	.2byte	0x51
 20a:	0524                	.2byte	0x524
 20c:	0000010b          	.4byte	0x10b
 210:	0305                	.2byte	0x305
 212:	00d8                	.2byte	0xd8
 214:	0000                	.2byte	0x0
 216:	7b11                	.2byte	0x7b11
 218:	0001                	.2byte	0x1
 21a:	0200                	.2byte	0x200
 21c:	3386                	.2byte	0x3386
 21e:	0142                	.2byte	0x142
 220:	0000                	.2byte	0x0
 222:	0508                	.2byte	0x508
 224:	3800                	.2byte	0x3800
 226:	0034                	.2byte	0x34
 228:	0000                	.2byte	0x0
 22a:	9c01                	.2byte	0x9c01
 22c:	00006a0b          	.4byte	0x6a0b
 230:	0a00                	.2byte	0xa00
 232:	017c                	.2byte	0x17c
 234:	0000                	.2byte	0x0
 236:	337e                	.2byte	0x337e
 238:	0498                	.2byte	0x498
 23a:	3800                	.2byte	0x3800
 23c:	0070                	.2byte	0x70
 23e:	0000                	.2byte	0x0
 240:	9c01                	.2byte	0x9c01
 242:	018e                	.2byte	0x18e
 244:	0000                	.2byte	0x0
 246:	776f6c03          	.4byte	0x776f6c03
 24a:	7e00                	.2byte	0x7e00
 24c:	6a3c                	.2byte	0x6a3c
 24e:	0000                	.2byte	0x0
 250:	0200                	.2byte	0x200
 252:	5c91                	.2byte	0x5c91
 254:	00696803          	.4byte	0x696803
 258:	457e                	.2byte	0x457e
 25a:	006a                	.2byte	0x6a
 25c:	0000                	.2byte	0x0
 25e:	9102                	.2byte	0x9102
 260:	0458                	.2byte	0x458
 262:	04bc                	.2byte	0x4bc
 264:	3800                	.2byte	0x3800
 266:	0038                	.2byte	0x38
 268:	0000                	.2byte	0x0
 26a:	7001                	.2byte	0x7001
 26c:	8000                	.2byte	0x8000
 26e:	00006a07          	.4byte	0x6a07
 272:	0200                	.2byte	0x200
 274:	6c91                	.2byte	0x6c91
 276:	0000                	.2byte	0x0
 278:	9312                	.2byte	0x9312
 27a:	0001                	.2byte	0x1
 27c:	0200                	.2byte	0x200
 27e:	326a                	.2byte	0x326a
 280:	006a                	.2byte	0x6a
 282:	0000                	.2byte	0x0
 284:	0314                	.2byte	0x314
 286:	3800                	.2byte	0x3800
 288:	0184                	.2byte	0x184
 28a:	0000                	.2byte	0x0
 28c:	9c01                	.2byte	0x9c01
 28e:	01f8                	.2byte	0x1f8
 290:	0000                	.2byte	0x0
 292:	776f6c03          	.4byte	0x776f6c03
 296:	6a00                	.2byte	0x6a00
 298:	6a40                	.2byte	0x6a40
 29a:	0000                	.2byte	0x0
 29c:	0200                	.2byte	0x200
 29e:	5c91                	.2byte	0x5c91
 2a0:	00696803          	.4byte	0x696803
 2a4:	486a                	.2byte	0x486a
 2a6:	006a                	.2byte	0x6a
 2a8:	0000                	.2byte	0x0
 2aa:	9102                	.2byte	0x9102
 2ac:	0658                	.2byte	0x658
 2ae:	0211                	.2byte	0x211
 2b0:	0000                	.2byte	0x0
 2b2:	006a066b          	.4byte	0x6a066b
 2b6:	0000                	.2byte	0x0
 2b8:	9102                	.2byte	0x9102
 2ba:	0164                	.2byte	0x164
 2bc:	0069                	.2byte	0x69
 2be:	066c                	.2byte	0x66c
 2c0:	006a                	.2byte	0x6a
 2c2:	0000                	.2byte	0x0
 2c4:	9102                	.2byte	0x9102
 2c6:	016c                	.2byte	0x16c
 2c8:	006a                	.2byte	0x6a
 2ca:	106c                	.2byte	0x106c
 2cc:	006a                	.2byte	0x6a
 2ce:	0000                	.2byte	0x0
 2d0:	9102                	.2byte	0x9102
 2d2:	0668                	.2byte	0x668
 2d4:	0181                	.2byte	0x181
 2d6:	0000                	.2byte	0x0
 2d8:	066d                	.2byte	0x66d
 2da:	006a                	.2byte	0x6a
 2dc:	0000                	.2byte	0x0
 2de:	9102                	.2byte	0x9102
 2e0:	0060                	.2byte	0x60
 2e2:	00017413          	andi	s0,sp,0
 2e6:	0200                	.2byte	0x200
 2e8:	3356                	.2byte	0x3356
 2ea:	0142                	.2byte	0x142
 2ec:	0000                	.2byte	0x0
 2ee:	01fc                	.2byte	0x1fc
 2f0:	3800                	.2byte	0x3800
 2f2:	0118                	.2byte	0x118
 2f4:	0000                	.2byte	0x0
 2f6:	9c01                	.2byte	0x9c01
 2f8:	025e                	.2byte	0x25e
 2fa:	0000                	.2byte	0x0
 2fc:	6901                	.2byte	0x6901
 2fe:	5800                	.2byte	0x5800
 300:	6a06                	.2byte	0x6a06
 302:	0000                	.2byte	0x0
 304:	0200                	.2byte	0x200
 306:	6c91                	.2byte	0x6c91
 308:	6a01                	.2byte	0x6a01
 30a:	5900                	.2byte	0x5900
 30c:	6a06                	.2byte	0x6a06
 30e:	0000                	.2byte	0x0
 310:	0200                	.2byte	0x200
 312:	6891                	.2byte	0x6891
 314:	6b01                	.2byte	0x6b01
 316:	5a00                	.2byte	0x5a00
 318:	6a06                	.2byte	0x6a06
 31a:	0000                	.2byte	0x0
 31c:	0200                	.2byte	0x200
 31e:	6491                	.2byte	0x6491
 320:	7301                	.2byte	0x7301
 322:	6d75                	.2byte	0x6d75
 324:	5b00                	.2byte	0x5b00
 326:	6a06                	.2byte	0x6a06
 328:	0000                	.2byte	0x0
 32a:	0200                	.2byte	0x200
 32c:	6091                	.2byte	0x6091
 32e:	6b14                	.2byte	0x6b14
 330:	5c02006b          	.4byte	0x5c02006b
 334:	6a06                	.2byte	0x6a06
 336:	0000                	.2byte	0x0
 338:	0600                	.2byte	0x600
 33a:	0164                	.2byte	0x164
 33c:	0000                	.2byte	0x0
 33e:	0f5d                	.2byte	0xf5d
 340:	0071                	.2byte	0x71
 342:	0000                	.2byte	0x0
 344:	9102                	.2byte	0x9102
 346:	005c                	.2byte	0x5c
 348:	6615                	.2byte	0x6615
 34a:	7269                	.2byte	0x7269
 34c:	0200                	.2byte	0x200
 34e:	334d                	.2byte	0x334d
 350:	0142                	.2byte	0x142
 352:	0000                	.2byte	0x0
 354:	017c                	.2byte	0x17c
 356:	3800                	.2byte	0x3800
 358:	0080                	.2byte	0x80
 35a:	0000                	.2byte	0x0
 35c:	9c01                	.2byte	0x9c01
 35e:	0000028f          	.4byte	0x28f
 362:	9004                	.2byte	0x9004
 364:	0001                	.2byte	0x1
 366:	5438                	.2byte	0x5438
 368:	0000                	.2byte	0x0
 36a:	0100                	.2byte	0x100
 36c:	0069                	.2byte	0x69
 36e:	006a0a4f          	.4byte	0x6a0a4f
 372:	0000                	.2byte	0x0
 374:	9102                	.2byte	0x9102
 376:	006c                	.2byte	0x6c
 378:	1600                	.2byte	0x1600
 37a:	01fe                	.2byte	0x1fe
 37c:	0000                	.2byte	0x0
 37e:	4002                	.2byte	0x4002
 380:	6a32                	.2byte	0x6a32
 382:	0000                	.2byte	0x0
 384:	8c00                	.2byte	0x8c00
 386:	0000                	.2byte	0x0
 388:	f038                	.2byte	0xf038
 38a:	0000                	.2byte	0x0
 38c:	0100                	.2byte	0x100
 38e:	f79c                	.2byte	0xf79c
 390:	0002                	.2byte	0x2
 392:	1700                	.2byte	0x1700
 394:	00000217          	auipc	tp,0x0
 398:	4002                	.2byte	0x4002
 39a:	6a40                	.2byte	0x6a40
 39c:	0000                	.2byte	0x0
 39e:	0200                	.2byte	0x200
 3a0:	5c91                	.2byte	0x5c91
 3a2:	8606                	.2byte	0x8606
 3a4:	0001                	.2byte	0x1
 3a6:	4600                	.2byte	0x4600
 3a8:	6a06                	.2byte	0x6a06
 3aa:	0000                	.2byte	0x0
 3ac:	0200                	.2byte	0x200
 3ae:	6891                	.2byte	0x6891
 3b0:	a018                	.2byte	0xa018
 3b2:	0000                	.2byte	0x0
 3b4:	4c38                	.2byte	0x4c38
 3b6:	0000                	.2byte	0x0
 3b8:	e000                	.2byte	0xe000
 3ba:	0002                	.2byte	0x2
 3bc:	0100                	.2byte	0x100
 3be:	0069                	.2byte	0x69
 3c0:	0a41                	.2byte	0xa41
 3c2:	006a                	.2byte	0x6a
 3c4:	0000                	.2byte	0x0
 3c6:	9102                	.2byte	0x9102
 3c8:	006c                	.2byte	0x6c
 3ca:	fc04                	.2byte	0xfc04
 3cc:	0000                	.2byte	0x0
 3ce:	6838                	.2byte	0x6838
 3d0:	0000                	.2byte	0x0
 3d2:	0100                	.2byte	0x100
 3d4:	0069                	.2byte	0x69
 3d6:	006a0a47          	.4byte	0x6a0a47
 3da:	0000                	.2byte	0x0
 3dc:	9102                	.2byte	0x9102
 3de:	0064                	.2byte	0x64
 3e0:	1900                	.2byte	0x1900
 3e2:	015c                	.2byte	0x15c
 3e4:	0000                	.2byte	0x0
 3e6:	3902                	.2byte	0x3902
 3e8:	00002433          	sltz	s0,zero
 3ec:	6838                	.2byte	0x6838
 3ee:	0000                	.2byte	0x0
 3f0:	0100                	.2byte	0x100
 3f2:	249c                	.2byte	0x249c
 3f4:	04000003          	lb	zero,64(zero) # 40 <inputsignal+0x14>
 3f8:	0030                	.2byte	0x30
 3fa:	3800                	.2byte	0x3800
 3fc:	0048                	.2byte	0x48
 3fe:	0000                	.2byte	0x0
 400:	6901                	.2byte	0x6901
 402:	3a00                	.2byte	0x3a00
 404:	6a0a                	.2byte	0x6a0a
 406:	0000                	.2byte	0x0
 408:	0200                	.2byte	0x200
 40a:	6c91                	.2byte	0x6c91
 40c:	0000                	.2byte	0x0
 40e:	6a0c                	.2byte	0x6a0c
 410:	0001                	.2byte	0x1
 412:	2a00                	.2byte	0x2a00
 414:	00006a2f          	.4byte	0x6a2f
 418:	d000                	.2byte	0xd000
 41a:	0014                	.2byte	0x14
 41c:	7410                	.2byte	0x7410
 41e:	0000                	.2byte	0x0
 420:	0100                	.2byte	0x100
 422:	629c                	.2byte	0x629c
 424:	01000003          	lb	zero,16(zero) # 10 <taps+0x10>
 428:	756e                	.2byte	0x756e
 42a:	006d                	.2byte	0x6d
 42c:	092c                	.2byte	0x92c
 42e:	006a                	.2byte	0x6a
 430:	0000                	.2byte	0x0
 432:	9102                	.2byte	0x9102
 434:	046c                	.2byte	0x46c
 436:	1504                	.2byte	0x1504
 438:	1000                	.2byte	0x1000
 43a:	0020                	.2byte	0x20
 43c:	0000                	.2byte	0x0
 43e:	6901                	.2byte	0x6901
 440:	2e00                	.2byte	0x2e00
 442:	6a11                	.2byte	0x6a11
 444:	0000                	.2byte	0x0
 446:	0200                	.2byte	0x200
 448:	6891                	.2byte	0x6891
 44a:	0000                	.2byte	0x0
 44c:	9d0c                	.2byte	0x9d0c
 44e:	0001                	.2byte	0x1
 450:	1d00                	.2byte	0x1d00
 452:	a030                	.2byte	0xa030
 454:	5c000003          	lb	zero,1472(zero) # 5c0 <_ebss+0x428>
 458:	0014                	.2byte	0x14
 45a:	7410                	.2byte	0x7410
 45c:	0000                	.2byte	0x0
 45e:	0100                	.2byte	0x100
 460:	a09c                	.2byte	0xa09c
 462:	01000003          	lb	zero,16(zero) # 10 <taps+0x10>
 466:	756e                	.2byte	0x756e
 468:	006d                	.2byte	0x6d
 46a:	071f 03a0 0000      	.byte	0x1f, 0x07, 0xa0, 0x03, 0x00, 0x00
 470:	9102                	.2byte	0x9102
 472:	1490046f          	jal	s0,dba <_fstack+0x7ba>
 476:	1000                	.2byte	0x1000
 478:	0020                	.2byte	0x20
 47a:	0000                	.2byte	0x0
 47c:	6901                	.2byte	0x6901
 47e:	2100                	.2byte	0x2100
 480:	6a11                	.2byte	0x6a11
 482:	0000                	.2byte	0x0
 484:	0200                	.2byte	0x200
 486:	6891                	.2byte	0x6891
 488:	0000                	.2byte	0x0
 48a:	0102                	.2byte	0x102
 48c:	9508                	.2byte	0x9508
 48e:	0000                	.2byte	0x0
 490:	1a00                	.2byte	0x1a00
 492:	03a0                	.2byte	0x3a0
 494:	0000                	.2byte	0x0
 496:	ec0a                	.2byte	0xec0a
 498:	0001                	.2byte	0x1
 49a:	1600                	.2byte	0x1600
 49c:	0830                	.2byte	0x830
 49e:	0014                	.2byte	0x14
 4a0:	5410                	.2byte	0x5410
 4a2:	0000                	.2byte	0x0
 4a4:	0100                	.2byte	0x100
 4a6:	ce9c                	.2byte	0xce9c
 4a8:	03000003          	lb	zero,48(zero) # 30 <inputsignal+0x4>
 4ac:	4e160073          	.4byte	0x4e160073
 4b0:	03ce                	.2byte	0x3ce
 4b2:	0000                	.2byte	0x0
 4b4:	9102                	.2byte	0x9102
 4b6:	006c                	.2byte	0x6c
 4b8:	0003a70b          	.4byte	0x3a70b
 4bc:	0a00                	.2byte	0xa00
 4be:	000001cf          	.4byte	0x1cf
 4c2:	300c                	.2byte	0x300c
 4c4:	13a0                	.2byte	0x13a0
 4c6:	1000                	.2byte	0x1000
 4c8:	0068                	.2byte	0x68
 4ca:	0000                	.2byte	0x0
 4cc:	9c01                	.2byte	0x9c01
 4ce:	03f5                	.2byte	0x3f5
 4d0:	0000                	.2byte	0x0
 4d2:	0c006303          	.4byte	0xc006303
 4d6:	a045                	.2byte	0xa045
 4d8:	02000003          	lb	zero,32(zero) # 20 <taps+0x20>
 4dc:	6f91                	.2byte	0x6f91
 4de:	1b00                	.2byte	0x1b00
 4e0:	01b8                	.2byte	0x1b8
 4e2:	0000                	.2byte	0x0
 4e4:	0602                	.2byte	0x602
 4e6:	5830                	.2byte	0x5830
 4e8:	48100013          	li	zero,1153
 4ec:	0000                	.2byte	0x0
 4ee:	0100                	.2byte	0x100
 4f0:	189c                	.2byte	0x189c
 4f2:	0004                	.2byte	0x4
 4f4:	0300                	.2byte	0x300
 4f6:	006e                	.2byte	0x6e
 4f8:	3f06                	.2byte	0x3f06
 4fa:	006a                	.2byte	0x6a
 4fc:	0000                	.2byte	0x0
 4fe:	9102                	.2byte	0x9102
 500:	006c                	.2byte	0x6c
 502:	7b0d                	.2byte	0x7b0d
 504:	0000                	.2byte	0x0
 506:	1c00                	.2byte	0x1c00
 508:	01ec                	.2byte	0x1ec
 50a:	1000                	.2byte	0x1000
 50c:	001c                	.2byte	0x1c
 50e:	0000                	.2byte	0x0
 510:	9c01                	.2byte	0x9c01
 512:	270d                	.2byte	0x270d
 514:	0001                	.2byte	0x1
 516:	0e00                	.2byte	0xe00
 518:	01d0                	.2byte	0x1d0
 51a:	1000                	.2byte	0x1000
 51c:	001c                	.2byte	0x1c
 51e:	0000                	.2byte	0x0
 520:	9c01                	.2byte	0x9c01
 522:	6a00                	.2byte	0x6a00
 524:	0001                	.2byte	0x1
 526:	0500                	.2byte	0x500
 528:	0100                	.2byte	0x100
 52a:	9604                	.2byte	0x9604
 52c:	0002                	.2byte	0x2
 52e:	0900                	.2byte	0x900
 530:	00ad                	.2byte	0xad
 532:	0000                	.2byte	0x0
 534:	ea1d                	.2byte	0xea1d
 536:	0000                	.2byte	0x0
 538:	0000                	.2byte	0x0
 53a:	0000                	.2byte	0x0
 53c:	0800                	.2byte	0x800
 53e:	0002                	.2byte	0x2
 540:	5010                	.2byte	0x5010
 542:	0011                	.2byte	0x11
 544:	d700                	.2byte	0xd700
 546:	0008                	.2byte	0x8
 548:	0100                	.2byte	0x100
 54a:	0601                	.2byte	0x601
 54c:	008e                	.2byte	0x8e
 54e:	0000                	.2byte	0x0
 550:	0201                	.2byte	0x201
 552:	4605                	.2byte	0x4605
 554:	0001                	.2byte	0x1
 556:	0100                	.2byte	0x100
 558:	0504                	.2byte	0x504
 55a:	013d                	.2byte	0x13d
 55c:	0000                	.2byte	0x0
 55e:	0801                	.2byte	0x801
 560:	3805                	.2byte	0x3805
 562:	0001                	.2byte	0x1
 564:	0100                	.2byte	0x100
 566:	0801                	.2byte	0x801
 568:	008c                	.2byte	0x8c
 56a:	0000                	.2byte	0x0
 56c:	0201                	.2byte	0x201
 56e:	00009a07          	.4byte	0x9a07
 572:	0a00                	.2byte	0xa00
 574:	0208                	.2byte	0x208
 576:	0000                	.2byte	0x0
 578:	3404                	.2byte	0x3404
 57a:	00005c1b          	.4byte	0x5c1b
 57e:	0100                	.2byte	0x100
 580:	0704                	.2byte	0x704
 582:	0115                	.2byte	0x115
 584:	0000                	.2byte	0x0
 586:	0801                	.2byte	0x801
 588:	00011007          	.4byte	0x11007
 58c:	0b00                	.2byte	0xb00
 58e:	0504                	.2byte	0x504
 590:	6e69                	.2byte	0x6e69
 592:	0074                	.2byte	0x74
 594:	0401                	.2byte	0x401
 596:	00011a07          	.4byte	0x11a07
 59a:	0300                	.2byte	0x300
 59c:	0000017b          	.4byte	0x17b
 5a0:	00008823          	sb	zero,16(ra) # 10c <inputbuffer+0xc>
 5a4:	8800                	.2byte	0x8800
 5a6:	0000                	.2byte	0x0
 5a8:	0200                	.2byte	0x200
 5aa:	0400                	.2byte	0x400
 5ac:	006a                	.2byte	0x6a
 5ae:	0000                	.2byte	0x0
 5b0:	00017403          	.4byte	0x17403
 5b4:	2200                	.2byte	0x2200
 5b6:	0088                	.2byte	0x88
 5b8:	0000                	.2byte	0x0
 5ba:	009d                	.2byte	0x9d
 5bc:	0000                	.2byte	0x0
 5be:	0002                	.2byte	0x2
 5c0:	660c                	.2byte	0x660c
 5c2:	7269                	.2byte	0x7269
 5c4:	0300                	.2byte	0x300
 5c6:	0d21                	.2byte	0xd21
 5c8:	0088                	.2byte	0x88
 5ca:	0000                	.2byte	0x0
 5cc:	000000af          	.4byte	0xaf
 5d0:	0002                	.2byte	0x2
 5d2:	6a0d                	.2byte	0x6a0d
 5d4:	0000                	.2byte	0x0
 5d6:	0300                	.2byte	0x300
 5d8:	062e                	.2byte	0x62e
 5da:	02fc                	.2byte	0x2fc
 5dc:	1000                	.2byte	0x1000
 5de:	105c                	.2byte	0x105c
 5e0:	0000                	.2byte	0x0
 5e2:	9c01                	.2byte	0x9c01
 5e4:	00fa                	.2byte	0xfa
 5e6:	0000                	.2byte	0x0
 5e8:	6a0e                	.2byte	0x6a0e
 5ea:	0300                	.2byte	0x300
 5ec:	006a0663          	beq	s4,t1,5f8 <_ebss+0x460>
 5f0:	0000                	.2byte	0x0
 5f2:	3d05                	.2byte	0x3d05
 5f4:	0002                	.2byte	0x2
 5f6:	9500                	.2byte	0x9500
 5f8:	0088                	.2byte	0x88
 5fa:	0000                	.2byte	0x0
 5fc:	9102                	.2byte	0x9102
 5fe:	056c                	.2byte	0x56c
 600:	00000223          	sb	zero,4(zero) # 4 <taps+0x4>
 604:	88d2                	.2byte	0x88d2
 606:	0000                	.2byte	0x0
 608:	0200                	.2byte	0x200
 60a:	6891                	.2byte	0x6891
 60c:	0002290f          	.4byte	0x2290f
 610:	0300                	.2byte	0x300
 612:	010a                	.2byte	0x10a
 614:	00008807          	.4byte	0x8807
 618:	0200                	.2byte	0x200
 61a:	6491                	.2byte	0x6491
 61c:	0600                	.2byte	0x600
 61e:	00000237          	lui	tp,0x0
 622:	a81a                	.2byte	0xa81a
 624:	0002                	.2byte	0x2
 626:	5410                	.2byte	0x5410
 628:	0000                	.2byte	0x0
 62a:	0100                	.2byte	0x100
 62c:	1b9c                	.2byte	0x1b9c
 62e:	0001                	.2byte	0x1
 630:	0700                	.2byte	0x700
 632:	0070                	.2byte	0x70
 634:	181a                	.2byte	0x181a
 636:	0000011b          	.4byte	0x11b
 63a:	9102                	.2byte	0x9102
 63c:	006c                	.2byte	0x6c
 63e:	2704                	.2byte	0x2704
 640:	0001                	.2byte	0x1
 642:	0100                	.2byte	0x100
 644:	0801                	.2byte	0x801
 646:	0095                	.2byte	0x95
 648:	0000                	.2byte	0x0
 64a:	2010                	.2byte	0x2010
 64c:	0001                	.2byte	0x1
 64e:	0600                	.2byte	0x600
 650:	0000022f          	.4byte	0x22f
 654:	4012                	.2byte	0x4012
 656:	0002                	.2byte	0x2
 658:	6810                	.2byte	0x6810
 65a:	0000                	.2byte	0x0
 65c:	0100                	.2byte	0x100
 65e:	4d9c                	.2byte	0x4d9c
 660:	0001                	.2byte	0x1
 662:	0700                	.2byte	0x700
 664:	13120063          	beq	tp,a7,784 <_fstack+0x184>
 668:	0120                	.2byte	0x120
 66a:	0000                	.2byte	0x0
 66c:	9102                	.2byte	0x9102
 66e:	7b08006f          	j	80e1e <_fstack+0x8081e>
 672:	0000                	.2byte	0x0
 674:	1c00                	.2byte	0x1c00
 676:	0224                	.2byte	0x224
 678:	1000                	.2byte	0x1000
 67a:	001c                	.2byte	0x1c
 67c:	0000                	.2byte	0x0
 67e:	9c01                	.2byte	0x9c01
 680:	2708                	.2byte	0x2708
 682:	0001                	.2byte	0x1
 684:	0e00                	.2byte	0xe00
 686:	0208                	.2byte	0x208
 688:	1000                	.2byte	0x1000
 68a:	001c                	.2byte	0x1c
 68c:	0000                	.2byte	0x0
 68e:	9c01                	.2byte	0x9c01
 690:	2b00                	.2byte	0x2b00
 692:	0000                	.2byte	0x0
 694:	0500                	.2byte	0x500
 696:	0100                	.2byte	0x100
 698:	a504                	.2byte	0xa504
 69a:	01000003          	lb	zero,16(zero) # 10 <taps+0x10>
 69e:	19f6                	.2byte	0x19f6
 6a0:	0000                	.2byte	0x0
 6a2:	0000                	.2byte	0x0
 6a4:	3800                	.2byte	0x3800
 6a6:	4324                	.2byte	0x4324
 6a8:	0002                	.2byte	0x2
 6aa:	8400                	.2byte	0x8400
 6ac:	0002                	.2byte	0x2
 6ae:	6f00                	.2byte	0x6f00
 6b0:	0000                	.2byte	0x0
 6b2:	0100                	.2byte	0x100
 6b4:	0280                	.2byte	0x280
 6b6:	000002d7          	.4byte	0x2d7
 6ba:	0000                	.2byte	0x0
 6bc:	3800                	.2byte	0x3800
 6be:	0024                	.2byte	0x24

Disassembly of section .debug_abbrev:

00000000 <.debug_abbrev>:
   0:	1101                	.2byte	0x1101
   2:	1000                	.2byte	0x1000
   4:	12011117          	auipc	sp,0x12011
   8:	1b0e030f          	.4byte	0x1b0e030f
   c:	250e                	.2byte	0x250e
   e:	130e                	.2byte	0x130e
  10:	0005                	.2byte	0x5
  12:	0000                	.2byte	0x0
  14:	2401                	.2byte	0x2401
  16:	0b00                	.2byte	0xb00
  18:	030b3e0b          	.4byte	0x30b3e0b
  1c:	000e                	.2byte	0xe
  1e:	0200                	.2byte	0x200
  20:	002e                	.2byte	0x2e
  22:	213a0e03          	lb	t3,531(s4)
  26:	3b01                	.2byte	0x3b01
  28:	2521390b          	.4byte	0x2521390b
  2c:	01111927          	.4byte	0x1111927
  30:	0612                	.2byte	0x612
  32:	1840                	.2byte	0x1840
  34:	197a                	.2byte	0x197a
  36:	0000                	.2byte	0x0
  38:	25011103          	lh	sp,592(sp) # 12011254 <_esram_rom+0x200fc0c>
  3c:	130e                	.2byte	0x130e
  3e:	1b1f030b          	.4byte	0x1b1f030b
  42:	111f 1201 1006      	.byte	0x1f, 0x11, 0x01, 0x12, 0x06, 0x10
  48:	04000017          	auipc	zero,0x4000
  4c:	0024                	.2byte	0x24
  4e:	0b3e0b0b          	.4byte	0xb3e0b0b
  52:	00000803          	lb	a6,0(zero) # 0 <taps>
  56:	2e05                	.2byte	0x2e05
  58:	3f00                	.2byte	0x3f00
  5a:	0319                	.2byte	0x319
  5c:	3a08                	.2byte	0x3a08
  5e:	390b3b0b          	.4byte	0x390b3b0b
  62:	1119270b          	.4byte	0x1119270b
  66:	1201                	.2byte	0x1201
  68:	4006                	.2byte	0x4006
  6a:	7c18                	.2byte	0x7c18
  6c:	0019                	.2byte	0x19
  6e:	0600                	.2byte	0x600
  70:	012e                	.2byte	0x12e
  72:	0b3a0e03          	lb	t3,179(s4)
  76:	0b390b3b          	.4byte	0xb390b3b
  7a:	01111927          	.4byte	0x1111927
  7e:	0612                	.2byte	0x612
  80:	1840                	.2byte	0x1840
  82:	197a                	.2byte	0x197a
  84:	1301                	.2byte	0x1301
  86:	0000                	.2byte	0x0
  88:	03000507          	.4byte	0x3000507
  8c:	3a0e                	.2byte	0x3a0e
  8e:	390b3b0b          	.4byte	0x390b3b0b
  92:	0213490b          	.4byte	0x213490b
  96:	0018                	.2byte	0x18
  98:	0000                	.2byte	0x0
  9a:	3401                	.2byte	0x3401
  9c:	0300                	.2byte	0x300
  9e:	3a08                	.2byte	0x3a08
  a0:	0221                	.2byte	0x221
  a2:	0b390b3b          	.4byte	0xb390b3b
  a6:	1349                	.2byte	0x1349
  a8:	1802                	.2byte	0x1802
  aa:	0000                	.2byte	0x0
  ac:	2402                	.2byte	0x2402
  ae:	0b00                	.2byte	0xb00
  b0:	030b3e0b          	.4byte	0x30b3e0b
  b4:	000e                	.2byte	0xe
  b6:	0300                	.2byte	0x300
  b8:	0005                	.2byte	0x5
  ba:	213a0803          	lb	a6,531(s4)
  be:	3b02                	.2byte	0x3b02
  c0:	490b390b          	.4byte	0x490b390b
  c4:	00180213          	addi	tp,a6,1
  c8:	0400                	.2byte	0x400
  ca:	0111010b          	.4byte	0x111010b
  ce:	0612                	.2byte	0x612
  d0:	0000                	.2byte	0x0
  d2:	3405                	.2byte	0x3405
  d4:	0300                	.2byte	0x300
  d6:	3a0e                	.2byte	0x3a0e
  d8:	0321                	.2byte	0x321
  da:	0b390b3b          	.4byte	0xb390b3b
  de:	1349                	.2byte	0x1349
  e0:	1802193f 34060000 	.8byte	0x340600001802193f
  e8:	0300                	.2byte	0x300
  ea:	3a0e                	.2byte	0x3a0e
  ec:	0221                	.2byte	0x221
  ee:	0b390b3b          	.4byte	0xb390b3b
  f2:	1349                	.2byte	0x1349
  f4:	1802                	.2byte	0x1802
  f6:	0000                	.2byte	0x0
  f8:	49010107          	.4byte	0x49010107
  fc:	00130113          	addi	sp,t1,1
 100:	0800                	.2byte	0x800
 102:	0021                	.2byte	0x21
 104:	1349                	.2byte	0x1349
 106:	00000b2f          	.4byte	0xb2f
 10a:	3409                	.2byte	0x3409
 10c:	0300                	.2byte	0x300
 10e:	3a08                	.2byte	0x3a08
 110:	0321                	.2byte	0x321
 112:	0b390b3b          	.4byte	0xb390b3b
 116:	1349                	.2byte	0x1349
 118:	1802193f 2e0a0000 	.8byte	0x2e0a00001802193f
 120:	3f01                	.2byte	0x3f01
 122:	0319                	.2byte	0x319
 124:	3a0e                	.2byte	0x3a0e
 126:	0221                	.2byte	0x221
 128:	0b390b3b          	.4byte	0xb390b3b
 12c:	01111927          	.4byte	0x1111927
 130:	0612                	.2byte	0x612
 132:	1840                	.2byte	0x1840
 134:	197c                	.2byte	0x197c
 136:	1301                	.2byte	0x1301
 138:	0000                	.2byte	0x0
 13a:	0b000f0b          	.4byte	0xb000f0b
 13e:	0421                	.2byte	0x421
 140:	1349                	.2byte	0x1349
 142:	0000                	.2byte	0x0
 144:	2e0c                	.2byte	0x2e0c
 146:	3f01                	.2byte	0x3f01
 148:	0319                	.2byte	0x319
 14a:	3a0e                	.2byte	0x3a0e
 14c:	0221                	.2byte	0x221
 14e:	0b390b3b          	.4byte	0xb390b3b
 152:	1349                	.2byte	0x1349
 154:	0111                	.2byte	0x111
 156:	0612                	.2byte	0x612
 158:	1840                	.2byte	0x1840
 15a:	197a                	.2byte	0x197a
 15c:	1301                	.2byte	0x1301
 15e:	0000                	.2byte	0x0
 160:	2e0d                	.2byte	0x2e0d
 162:	0300                	.2byte	0x300
 164:	3a0e                	.2byte	0x3a0e
 166:	0121                	.2byte	0x121
 168:	21390b3b          	.4byte	0x21390b3b
 16c:	2725                	.2byte	0x2725
 16e:	1119                	.2byte	0x1119
 170:	1201                	.2byte	0x1201
 172:	4006                	.2byte	0x4006
 174:	7a18                	.2byte	0x7a18
 176:	0019                	.2byte	0x19
 178:	0e00                	.2byte	0xe00
 17a:	0111                	.2byte	0x111
 17c:	0e25                	.2byte	0xe25
 17e:	1f030b13          	addi	s6,t1,496
 182:	17551f1b          	.4byte	0x17551f1b
 186:	0111                	.2byte	0x111
 188:	1710                	.2byte	0x1710
 18a:	0000                	.2byte	0x0
 18c:	0300160f          	.4byte	0x300160f
 190:	3a0e                	.2byte	0x3a0e
 192:	390b3b0b          	.4byte	0x390b3b0b
 196:	0013490b          	.4byte	0x13490b
 19a:	1000                	.2byte	0x1000
 19c:	0024                	.2byte	0x24
 19e:	0b3e0b0b          	.4byte	0xb3e0b0b
 1a2:	00000803          	lb	a6,0(zero) # 0 <taps>
 1a6:	2e11                	.2byte	0x2e11
 1a8:	3f00                	.2byte	0x3f00
 1aa:	0319                	.2byte	0x319
 1ac:	3a0e                	.2byte	0x3a0e
 1ae:	390b3b0b          	.4byte	0x390b3b0b
 1b2:	1113490b          	.4byte	0x1113490b
 1b6:	1201                	.2byte	0x1201
 1b8:	4006                	.2byte	0x4006
 1ba:	7c18                	.2byte	0x7c18
 1bc:	0019                	.2byte	0x19
 1be:	1200                	.2byte	0x1200
 1c0:	012e                	.2byte	0x12e
 1c2:	0e03193f 0b3b0b3a 	.8byte	0xb3b0b3a0e03193f
 1ca:	0b39                	.2byte	0xb39
 1cc:	13491927          	.4byte	0x13491927
 1d0:	0111                	.2byte	0x111
 1d2:	0612                	.2byte	0x612
 1d4:	1840                	.2byte	0x1840
 1d6:	197a                	.2byte	0x197a
 1d8:	1301                	.2byte	0x1301
 1da:	0000                	.2byte	0x0
 1dc:	3f012e13          	slti	t3,sp,1008
 1e0:	0319                	.2byte	0x319
 1e2:	3a0e                	.2byte	0x3a0e
 1e4:	390b3b0b          	.4byte	0x390b3b0b
 1e8:	1113490b          	.4byte	0x1113490b
 1ec:	1201                	.2byte	0x1201
 1ee:	4006                	.2byte	0x4006
 1f0:	7c18                	.2byte	0x7c18
 1f2:	0119                	.2byte	0x119
 1f4:	14000013          	li	zero,320
 1f8:	0034                	.2byte	0x34
 1fa:	0b3a0803          	lb	a6,179(s4)
 1fe:	0b390b3b          	.4byte	0xb390b3b
 202:	1349                	.2byte	0x1349
 204:	0000                	.2byte	0x0
 206:	2e15                	.2byte	0x2e15
 208:	3f01                	.2byte	0x3f01
 20a:	0319                	.2byte	0x319
 20c:	3a08                	.2byte	0x3a08
 20e:	390b3b0b          	.4byte	0x390b3b0b
 212:	1113490b          	.4byte	0x1113490b
 216:	1201                	.2byte	0x1201
 218:	4006                	.2byte	0x4006
 21a:	7c18                	.2byte	0x7c18
 21c:	0119                	.2byte	0x119
 21e:	16000013          	li	zero,352
 222:	012e                	.2byte	0x12e
 224:	0e03193f 0b3b0b3a 	.8byte	0xb3b0b3a0e03193f
 22c:	0b39                	.2byte	0xb39
 22e:	13491927          	.4byte	0x13491927
 232:	0111                	.2byte	0x111
 234:	0612                	.2byte	0x612
 236:	1840                	.2byte	0x1840
 238:	197c                	.2byte	0x197c
 23a:	1301                	.2byte	0x1301
 23c:	0000                	.2byte	0x0
 23e:	03000517          	auipc	a0,0x3000
 242:	3a0e                	.2byte	0x3a0e
 244:	390b3b0b          	.4byte	0x390b3b0b
 248:	0213490b          	.4byte	0x213490b
 24c:	0018                	.2byte	0x18
 24e:	1800                	.2byte	0x1800
 250:	0111010b          	.4byte	0x111010b
 254:	0612                	.2byte	0x612
 256:	1301                	.2byte	0x1301
 258:	0000                	.2byte	0x0
 25a:	2e19                	.2byte	0x2e19
 25c:	3f01                	.2byte	0x3f01
 25e:	0319                	.2byte	0x319
 260:	3a0e                	.2byte	0x3a0e
 262:	390b3b0b          	.4byte	0x390b3b0b
 266:	1201110b          	.4byte	0x1201110b
 26a:	4006                	.2byte	0x4006
 26c:	7a18                	.2byte	0x7a18
 26e:	0119                	.2byte	0x119
 270:	1a000013          	li	zero,416
 274:	0026                	.2byte	0x26
 276:	1349                	.2byte	0x1349
 278:	0000                	.2byte	0x0
 27a:	3f012e1b          	.4byte	0x3f012e1b
 27e:	0319                	.2byte	0x319
 280:	3a0e                	.2byte	0x3a0e
 282:	390b3b0b          	.4byte	0x390b3b0b
 286:	1119270b          	.4byte	0x1119270b
 28a:	1201                	.2byte	0x1201
 28c:	4006                	.2byte	0x4006
 28e:	7a18                	.2byte	0x7a18
 290:	0119                	.2byte	0x119
 292:	00000013          	nop
 296:	2401                	.2byte	0x2401
 298:	0b00                	.2byte	0xb00
 29a:	030b3e0b          	.4byte	0x30b3e0b
 29e:	000e                	.2byte	0xe
 2a0:	0200                	.2byte	0x200
 2a2:	0018                	.2byte	0x18
 2a4:	0000                	.2byte	0x0
 2a6:	3f012e03          	lw	t3,1008(sp)
 2aa:	0319                	.2byte	0x319
 2ac:	3a0e                	.2byte	0x3a0e
 2ae:	0321                	.2byte	0x321
 2b0:	21390b3b          	.4byte	0x21390b3b
 2b4:	490d                	.2byte	0x490d
 2b6:	01193c13          	sltiu	s8,s2,17
 2ba:	04000013          	li	zero,64
 2be:	210b000f          	.4byte	0x210b000f
 2c2:	4904                	.2byte	0x4904
 2c4:	05000013          	li	zero,80
 2c8:	0034                	.2byte	0x34
 2ca:	213a0e03          	lb	t3,531(s4)
 2ce:	390b3b03          	.4byte	0x390b3b03
 2d2:	0721                	.2byte	0x721
 2d4:	1349                	.2byte	0x1349
 2d6:	1802                	.2byte	0x1802
 2d8:	0000                	.2byte	0x0
 2da:	2e06                	.2byte	0x2e06
 2dc:	3f01                	.2byte	0x3f01
 2de:	0319                	.2byte	0x319
 2e0:	3a0e                	.2byte	0x3a0e
 2e2:	0221                	.2byte	0x221
 2e4:	21390b3b          	.4byte	0x21390b3b
 2e8:	2706                	.2byte	0x2706
 2ea:	1119                	.2byte	0x1119
 2ec:	1201                	.2byte	0x1201
 2ee:	4006                	.2byte	0x4006
 2f0:	7c18                	.2byte	0x7c18
 2f2:	0119                	.2byte	0x119
 2f4:	07000013          	li	zero,112
 2f8:	0005                	.2byte	0x5
 2fa:	213a0803          	lb	a6,531(s4)
 2fe:	3b02                	.2byte	0x3b02
 300:	490b390b          	.4byte	0x490b390b
 304:	00180213          	addi	tp,a6,1
 308:	0800                	.2byte	0x800
 30a:	002e                	.2byte	0x2e
 30c:	213a0e03          	lb	t3,531(s4)
 310:	3b01                	.2byte	0x3b01
 312:	2521390b          	.4byte	0x2521390b
 316:	01111927          	.4byte	0x1111927
 31a:	0612                	.2byte	0x612
 31c:	1840                	.2byte	0x1840
 31e:	197a                	.2byte	0x197a
 320:	0000                	.2byte	0x0
 322:	1109                	.2byte	0x1109
 324:	2501                	.2byte	0x2501
 326:	130e                	.2byte	0x130e
 328:	1b1f030b          	.4byte	0x1b1f030b
 32c:	111f 1201 1006      	.byte	0x1f, 0x11, 0x01, 0x12, 0x06, 0x10
 332:	0a000017          	auipc	zero,0xa000
 336:	0016                	.2byte	0x16
 338:	0b3a0e03          	lb	t3,179(s4)
 33c:	0b390b3b          	.4byte	0xb390b3b
 340:	1349                	.2byte	0x1349
 342:	0000                	.2byte	0x0
 344:	0b00240b          	.4byte	0xb00240b
 348:	030b3e0b          	.4byte	0x30b3e0b
 34c:	0008                	.2byte	0x8
 34e:	0c00                	.2byte	0xc00
 350:	012e                	.2byte	0x12e
 352:	0803193f 0b3b0b3a 	.8byte	0xb3b0b3a0803193f
 35a:	0b39                	.2byte	0xb39
 35c:	1349                	.2byte	0x1349
 35e:	193c                	.2byte	0x193c
 360:	1301                	.2byte	0x1301
 362:	0000                	.2byte	0x0
 364:	2e0d                	.2byte	0x2e0d
 366:	3f01                	.2byte	0x3f01
 368:	0319                	.2byte	0x319
 36a:	3a0e                	.2byte	0x3a0e
 36c:	390b3b0b          	.4byte	0x390b3b0b
 370:	1201110b          	.4byte	0x1201110b
 374:	4006                	.2byte	0x4006
 376:	7c18                	.2byte	0x7c18
 378:	0119                	.2byte	0x119
 37a:	0e000013          	li	zero,224
 37e:	0034                	.2byte	0x34
 380:	0b3a0803          	lb	a6,179(s4)
 384:	0b390b3b          	.4byte	0xb390b3b
 388:	1349                	.2byte	0x1349
 38a:	0000                	.2byte	0x0
 38c:	0300340f          	.4byte	0x300340f
 390:	3a0e                	.2byte	0x3a0e
 392:	39053b0b          	.4byte	0x39053b0b
 396:	0213490b          	.4byte	0x213490b
 39a:	0018                	.2byte	0x18
 39c:	1000                	.2byte	0x1000
 39e:	0026                	.2byte	0x26
 3a0:	1349                	.2byte	0x1349
 3a2:	0000                	.2byte	0x0
 3a4:	0100                	.2byte	0x100
 3a6:	0111                	.2byte	0x111
 3a8:	1710                	.2byte	0x1710
 3aa:	0111                	.2byte	0x111
 3ac:	0f12                	.2byte	0xf12
 3ae:	0e1b0e03          	lb	t3,225(s6)
 3b2:	0e25                	.2byte	0xe25
 3b4:	00000513          	li	a0,0
 3b8:	2e02                	.2byte	0x2e02
 3ba:	0300                	.2byte	0x300
 3bc:	3f0e                	.2byte	0x3f0e
 3be:	1119                	.2byte	0x1119
 3c0:	1201                	.2byte	0x1201
 3c2:	0000000f          	fence	unknown,unknown

Disassembly of section .debug_aranges:

00000000 <.debug_aranges>:
   0:	001c                	.2byte	0x1c
   2:	0000                	.2byte	0x0
   4:	0002                	.2byte	0x2
   6:	0000                	.2byte	0x0
   8:	0000                	.2byte	0x0
   a:	0004                	.2byte	0x4
   c:	0000                	.2byte	0x0
   e:	0000                	.2byte	0x0
  10:	0000                	.2byte	0x0
  12:	1000                	.2byte	0x1000
  14:	0144                	.2byte	0x144
	...
  1e:	0000                	.2byte	0x0
  20:	001c                	.2byte	0x1c
  22:	0000                	.2byte	0x0
  24:	0002                	.2byte	0x2
  26:	0025                	.2byte	0x25
  28:	0000                	.2byte	0x0
  2a:	0004                	.2byte	0x4
  2c:	0000                	.2byte	0x0
  2e:	0000                	.2byte	0x0
  30:	0144                	.2byte	0x144
  32:	1000                	.2byte	0x1000
  34:	008c                	.2byte	0x8c
	...
  3e:	0000                	.2byte	0x0
  40:	007c                	.2byte	0x7c
  42:	0000                	.2byte	0x0
  44:	0002                	.2byte	0x2
  46:	00ea                	.2byte	0xea
  48:	0000                	.2byte	0x0
  4a:	0004                	.2byte	0x4
  4c:	0000                	.2byte	0x0
  4e:	0000                	.2byte	0x0
  50:	01d0                	.2byte	0x1d0
  52:	1000                	.2byte	0x1000
  54:	0038                	.2byte	0x38
  56:	0000                	.2byte	0x0
  58:	1358                	.2byte	0x1358
  5a:	1000                	.2byte	0x1000
  5c:	0048                	.2byte	0x48
  5e:	0000                	.2byte	0x0
  60:	13a0                	.2byte	0x13a0
  62:	1000                	.2byte	0x1000
  64:	0068                	.2byte	0x68
  66:	0000                	.2byte	0x0
  68:	1408                	.2byte	0x1408
  6a:	1000                	.2byte	0x1000
  6c:	0054                	.2byte	0x54
  6e:	0000                	.2byte	0x0
  70:	145c                	.2byte	0x145c
  72:	1000                	.2byte	0x1000
  74:	0074                	.2byte	0x74
  76:	0000                	.2byte	0x0
  78:	14d0                	.2byte	0x14d0
  7a:	1000                	.2byte	0x1000
  7c:	0074                	.2byte	0x74
  7e:	0000                	.2byte	0x0
  80:	0024                	.2byte	0x24
  82:	3800                	.2byte	0x3800
  84:	0068                	.2byte	0x68
  86:	0000                	.2byte	0x0
  88:	008c                	.2byte	0x8c
  8a:	3800                	.2byte	0x3800
  8c:	00f0                	.2byte	0xf0
  8e:	0000                	.2byte	0x0
  90:	017c                	.2byte	0x17c
  92:	3800                	.2byte	0x3800
  94:	0080                	.2byte	0x80
  96:	0000                	.2byte	0x0
  98:	01fc                	.2byte	0x1fc
  9a:	3800                	.2byte	0x3800
  9c:	0118                	.2byte	0x118
  9e:	0000                	.2byte	0x0
  a0:	0314                	.2byte	0x314
  a2:	3800                	.2byte	0x3800
  a4:	0184                	.2byte	0x184
  a6:	0000                	.2byte	0x0
  a8:	0498                	.2byte	0x498
  aa:	3800                	.2byte	0x3800
  ac:	0070                	.2byte	0x70
  ae:	0000                	.2byte	0x0
  b0:	0508                	.2byte	0x508
  b2:	3800                	.2byte	0x3800
  b4:	0034                	.2byte	0x34
	...
  be:	0000                	.2byte	0x0
  c0:	001c                	.2byte	0x1c
  c2:	0000                	.2byte	0x0
  c4:	0002                	.2byte	0x2
  c6:	00000523          	sb	zero,10(zero) # a <taps+0xa>
  ca:	0004                	.2byte	0x4
  cc:	0000                	.2byte	0x0
  ce:	0000                	.2byte	0x0
  d0:	0208                	.2byte	0x208
  d2:	1000                	.2byte	0x1000
  d4:	1150                	.2byte	0x1150
	...
  de:	0000                	.2byte	0x0
  e0:	001c                	.2byte	0x1c
  e2:	0000                	.2byte	0x0
  e4:	0002                	.2byte	0x2
  e6:	0691                	.2byte	0x691
  e8:	0000                	.2byte	0x0
  ea:	0004                	.2byte	0x4
  ec:	0000                	.2byte	0x0
  ee:	0000                	.2byte	0x0
  f0:	0000                	.2byte	0x0
  f2:	3800                	.2byte	0x3800
  f4:	0024                	.2byte	0x24
	...

Disassembly of section .debug_str:

00000000 <.debug_str>:
   0:	2e2e                	.2byte	0x2e2e
   2:	2f2e2e2f          	.4byte	0x2f2e2e2f
   6:	6966                	.2byte	0x6966
   8:	6d72                	.2byte	0x6d72
   a:	65726177          	.4byte	0x65726177
   e:	7472632f          	.4byte	0x7472632f
  12:	5f30                	.2byte	0x5f30
  14:	6576                	.2byte	0x6576
  16:	2e78                	.2byte	0x2e78
  18:	682f0053          	.4byte	0x682f0053
  1c:	2f656d6f          	jal	s10,56312 <_fstack+0x55d12>
  20:	6275                	.2byte	0x6275
  22:	6e75                	.2byte	0x6e75
  24:	7574                	.2byte	0x7574
  26:	776f442f          	.4byte	0x776f442f
  2a:	6c6e                	.2byte	0x6c6e
  2c:	7364616f          	jal	sp,46762 <_fstack+0x46162>
  30:	436f532f          	.4byte	0x436f532f
  34:	756f632f          	.4byte	0x756f632f
  38:	7372                	.2byte	0x7372
  3a:	2d65                	.2byte	0x2d65
  3c:	616c                	.2byte	0x616c
  3e:	5f62                	.2byte	0x5f62
  40:	2d36                	.2byte	0x2d36
  42:	3032                	.2byte	0x3032
  44:	3232                	.2byte	0x3232
  46:	312e                	.2byte	0x312e
  48:	62616c2f          	.4byte	0x62616c2f
  4c:	772d                	.2byte	0x772d
  4e:	6f6c                	.2byte	0x6f6c
  50:	61625f73          	csrrwi	t5,0x616,4
  54:	696c6573          	csrrsi	a0,0x696,24
  58:	656e                	.2byte	0x656e
  5a:	7365742f          	.4byte	0x7365742f
  5e:	6274                	.2byte	0x6274
  60:	6e65                	.2byte	0x6e65
  62:	4c2f6863          	bltu	t5,sp,532 <_ebss+0x39a>
  66:	6261                	.2byte	0x6261
  68:	2d36                	.2byte	0x2d36
  6a:	616d                	.2byte	0x616d
  6c:	6e69                	.2byte	0x6e69
  6e:	4700                	.2byte	0x4700
  70:	554e                	.2byte	0x554e
  72:	4120                	.2byte	0x4120
  74:	2e322053          	.4byte	0x2e322053
  78:	66003933          	.4byte	0x66003933
  7c:	756c                	.2byte	0x756c
  7e:	635f6873          	csrrsi	a6,0x635,30
  82:	7570                	.2byte	0x7570
  84:	645f 6163 6863      	.byte	0x5f, 0x64, 0x63, 0x61, 0x63, 0x68
  8a:	0065                	.2byte	0x65
  8c:	6e75                	.2byte	0x6e75
  8e:	6e676973          	csrrsi	s2,0x6e6,14
  92:	6465                	.2byte	0x6465
  94:	6320                	.2byte	0x6320
  96:	6168                	.2byte	0x6168
  98:	0072                	.2byte	0x72
  9a:	726f6873          	csrrsi	a6,mhpmevent6h,30
  9e:	2074                	.2byte	0x2074
  a0:	6e75                	.2byte	0x6e75
  a2:	6e676973          	csrrsi	s2,0x6e6,14
  a6:	6465                	.2byte	0x6465
  a8:	6920                	.2byte	0x6920
  aa:	746e                	.2byte	0x746e
  ac:	4700                	.2byte	0x4700
  ae:	554e                	.2byte	0x554e
  b0:	4320                	.2byte	0x4320
  b2:	3731                	.2byte	0x3731
  b4:	3120                	.2byte	0x3120
  b6:	2e32                	.2byte	0x2e32
  b8:	2e31                	.2byte	0x2e31
  ba:	2030                	.2byte	0x2030
  bc:	6d2d                	.2byte	0x6d2d
  be:	6261                	.2byte	0x6261
  c0:	3d69                	.2byte	0x3d69
  c2:	6c69                	.2byte	0x6c69
  c4:	3370                	.2byte	0x3370
  c6:	2032                	.2byte	0x2032
  c8:	6d2d                	.2byte	0x6d2d
  ca:	7574                	.2byte	0x7574
  cc:	656e                	.2byte	0x656e
  ce:	723d                	.2byte	0x723d
  d0:	656b636f          	jal	t1,b6726 <_fstack+0xb6126>
  d4:	2074                	.2byte	0x2074
  d6:	6d2d                	.2byte	0x6d2d
  d8:	7369                	.2byte	0x7369
  da:	2d61                	.2byte	0x2d61
  dc:	63657073          	csrci	0x636,10
  e0:	323d                	.2byte	0x323d
  e2:	322e                	.2byte	0x322e
  e4:	2d20                	.2byte	0x2d20
  e6:	616d                	.2byte	0x616d
  e8:	6372                	.2byte	0x6372
  ea:	3d68                	.2byte	0x3d68
  ec:	7672                	.2byte	0x7672
  ee:	20693233          	.4byte	0x20693233
  f2:	672d                	.2byte	0x672d
  f4:	2d20                	.2byte	0x2d20
  f6:	6666                	.2byte	0x6666
  f8:	6572                	.2byte	0x6572
  fa:	7365                	.2byte	0x7365
  fc:	6174                	.2byte	0x6174
  fe:	646e                	.2byte	0x646e
 100:	6e69                	.2byte	0x6e69
 102:	72690067          	jr	1830(s2)
 106:	5f71                	.2byte	0x5f71
 108:	6d746573          	csrrsi	a0,0x6d7,8
 10c:	7361                	.2byte	0x7361
 10e:	6f6c006b          	.4byte	0x6f6c006b
 112:	676e                	.2byte	0x676e
 114:	6c20                	.2byte	0x6c20
 116:	20676e6f          	jal	t3,7631c <_fstack+0x75d1c>
 11a:	6e75                	.2byte	0x6e75
 11c:	6e676973          	csrrsi	s2,0x6e6,14
 120:	6465                	.2byte	0x6465
 122:	6920                	.2byte	0x6920
 124:	746e                	.2byte	0x746e
 126:	6600                	.2byte	0x6600
 128:	756c                	.2byte	0x756c
 12a:	635f6873          	csrrsi	a6,0x635,30
 12e:	7570                	.2byte	0x7570
 130:	695f 6163 6863      	.byte	0x5f, 0x69, 0x63, 0x61, 0x63, 0x68
 136:	0065                	.2byte	0x65
 138:	6f6c                	.2byte	0x6f6c
 13a:	676e                	.2byte	0x676e
 13c:	6c20                	.2byte	0x6c20
 13e:	20676e6f          	jal	t3,76344 <_fstack+0x75d44>
 142:	6e69                	.2byte	0x6e69
 144:	0074                	.2byte	0x74
 146:	726f6873          	csrrsi	a6,mhpmevent6h,30
 14a:	2074                	.2byte	0x2074
 14c:	6e69                	.2byte	0x6e69
 14e:	0074                	.2byte	0x74
 150:	6e69                	.2byte	0x6e69
 152:	7570                	.2byte	0x7570
 154:	7374                	.2byte	0x7374
 156:	6769                	.2byte	0x6769
 158:	616e                	.2byte	0x616e
 15a:	006c                	.2byte	0x6c
 15c:	6e69                	.2byte	0x6e69
 15e:	7469                	.2byte	0x7469
 160:	6966                	.2byte	0x6966
 162:	0072                	.2byte	0x72
 164:	6e756f63          	bltu	a0,t2,862 <_fstack+0x262>
 168:	0074                	.2byte	0x74
 16a:	6175                	.2byte	0x6175
 16c:	7472                	.2byte	0x7472
 16e:	725f 6165 0064      	.byte	0x5f, 0x72, 0x65, 0x61, 0x64, 0x00
 174:	616d                	.2byte	0x616d
 176:	6d74                	.2byte	0x6d74
 178:	6c75                	.2byte	0x6c75
 17a:	7100                	.2byte	0x7100
 17c:	74726f73          	csrrsi	t5,0x747,4
 180:	7400                	.2byte	0x7400
 182:	6d65                	.2byte	0x6d65
 184:	0070                	.2byte	0x70
 186:	7074756f          	jal	a0,4808c <_fstack+0x47a8c>
 18a:	7475                	.2byte	0x7475
 18c:	706d6173          	csrrsi	sp,0x706,26
 190:	656c                	.2byte	0x656c
 192:	7000                	.2byte	0x7000
 194:	7261                	.2byte	0x7261
 196:	6974                	.2byte	0x6974
 198:	6974                	.2byte	0x6974
 19a:	75006e6f          	jal	t3,68ea <_fstack+0x62ea>
 19e:	7261                	.2byte	0x7261
 1a0:	5f74                	.2byte	0x5f74
 1a2:	6572                	.2byte	0x6572
 1a4:	6461                	.2byte	0x6461
 1a6:	635f 6168 0072      	.byte	0x5f, 0x63, 0x68, 0x61, 0x72, 0x00
 1ac:	6174                	.2byte	0x6174
 1ae:	7370                	.2byte	0x7370
 1b0:	7200                	.2byte	0x7200
 1b2:	7365                	.2byte	0x7365
 1b4:	6c75                	.2byte	0x6c75
 1b6:	0074                	.2byte	0x74
 1b8:	6175                	.2byte	0x6175
 1ba:	7472                	.2byte	0x7472
 1bc:	775f 6972 6574      	.byte	0x5f, 0x77, 0x72, 0x69, 0x74, 0x65
 1c2:	6900                	.2byte	0x6900
 1c4:	706e                	.2byte	0x706e
 1c6:	7475                	.2byte	0x7475
 1c8:	7562                	.2byte	0x7562
 1ca:	6666                	.2byte	0x6666
 1cc:	7265                	.2byte	0x7265
 1ce:	7500                	.2byte	0x7500
 1d0:	7261                	.2byte	0x7261
 1d2:	5f74                	.2byte	0x5f74
 1d4:	74697277          	.4byte	0x74697277
 1d8:	5f65                	.2byte	0x5f65
 1da:	72616863          	bltu	sp,t1,90a <_fstack+0x30a>
 1de:	6f00                	.2byte	0x6f00
 1e0:	7475                	.2byte	0x7475
 1e2:	7570                	.2byte	0x7570
 1e4:	7374                	.2byte	0x7374
 1e6:	6769                	.2byte	0x6769
 1e8:	616e                	.2byte	0x616e
 1ea:	006c                	.2byte	0x6c
 1ec:	6175                	.2byte	0x6175
 1ee:	7472                	.2byte	0x7472
 1f0:	775f 6972 6574      	.byte	0x5f, 0x77, 0x72, 0x69, 0x74, 0x65
 1f6:	735f 7274 6e69      	.byte	0x5f, 0x73, 0x74, 0x72, 0x69, 0x6e
 1fc:	69660067          	jr	1686(a2) # cc086e <_fstack+0xcc026e>
 200:	6672                	.2byte	0x6672
 202:	6c69                	.2byte	0x6c69
 204:	6574                	.2byte	0x6574
 206:	0072                	.2byte	0x72
 208:	6975                	.2byte	0x6975
 20a:	746e                	.2byte	0x746e
 20c:	745f3233          	.4byte	0x745f3233
 210:	7000                	.2byte	0x7000
 212:	7669                	.2byte	0x7669
 214:	6900746f          	jal	s0,78a4 <_fstack+0x72a4>
 218:	706e                	.2byte	0x706e
 21a:	7475                	.2byte	0x7475
 21c:	706d6173          	csrrsi	sp,0x706,26
 220:	656c                	.2byte	0x656c
 222:	7400                	.2byte	0x7400
 224:	706d                	.2byte	0x706d
 226:	6d5f 7400 706d      	.byte	0x5f, 0x6d, 0x00, 0x74, 0x6d, 0x70
 22c:	715f 7000 7475      	.byte	0x5f, 0x71, 0x00, 0x70, 0x75, 0x74
 232:	72616863          	bltu	sp,t1,962 <_fstack+0x362>
 236:	7000                	.2byte	0x7000
 238:	6972                	.2byte	0x6972
 23a:	746e                	.2byte	0x746e
 23c:	7400                	.2byte	0x7400
 23e:	706d                	.2byte	0x706d
 240:	665f 2f00 6d74      	.byte	0x5f, 0x66, 0x00, 0x2f, 0x74, 0x6d
 246:	2f70                	.2byte	0x2f70
 248:	7672                	.2byte	0x7672
 24a:	675f 6363 722f      	.byte	0x5f, 0x67, 0x63, 0x63, 0x2f, 0x72
 250:	7369                	.2byte	0x7369
 252:	672d7663          	bgeu	s10,s2,8be <_fstack+0x2be>
 256:	756e                	.2byte	0x756e
 258:	742d                	.2byte	0x742d
 25a:	636c6f6f          	jal	t5,c6890 <_fstack+0xc6290>
 25e:	6168                	.2byte	0x6168
 260:	6e69                	.2byte	0x6e69
 262:	6363672f          	.4byte	0x6363672f
 266:	62696c2f          	.4byte	0x62696c2f
 26a:	2f636367          	.4byte	0x2f636367
 26e:	666e6f63          	bltu	t3,t1,8ec <_fstack+0x2ec>
 272:	6769                	.2byte	0x6769
 274:	7369722f          	.4byte	0x7369722f
 278:	6d2f7663          	bgeu	t5,s2,944 <_fstack+0x344>
 27c:	6c75                	.2byte	0x6c75
 27e:	6964                	.2byte	0x6964
 280:	00532e33          	slt	t3,t1,t0
 284:	706d742f          	.4byte	0x706d742f
 288:	5f76722f          	.4byte	0x5f76722f
 28c:	2f636367          	.4byte	0x2f636367
 290:	6972                	.2byte	0x6972
 292:	2d766373          	csrrsi	t1,0x2d7,12
 296:	2d756e67          	.4byte	0x2d756e67
 29a:	6f74                	.2byte	0x6f74
 29c:	68636c6f          	jal	s8,36922 <_fstack+0x36322>
 2a0:	6961                	.2byte	0x6961
 2a2:	2f6e                	.2byte	0x2f6e
 2a4:	7562                	.2byte	0x7562
 2a6:	6c69                	.2byte	0x6c69
 2a8:	2d64                	.2byte	0x2d64
 2aa:	2d636367          	.4byte	0x2d636367
 2ae:	656e                	.2byte	0x656e
 2b0:	62696c77          	.4byte	0x62696c77
 2b4:	732d                	.2byte	0x732d
 2b6:	6174                	.2byte	0x6174
 2b8:	2f326567          	.4byte	0x2f326567
 2bc:	6972                	.2byte	0x6972
 2be:	33766373          	csrrsi	t1,mhpmevent23,12
 2c2:	2d32                	.2byte	0x2d32
 2c4:	6e75                	.2byte	0x6e75
 2c6:	776f6e6b          	.4byte	0x776f6e6b
 2ca:	2d6e                	.2byte	0x2d6e
 2cc:	6c65                	.2byte	0x6c65
 2ce:	2f66                	.2byte	0x2f66
 2d0:	696c                	.2byte	0x696c
 2d2:	6762                	.2byte	0x6762
 2d4:	5f006363          	bltu	zero,a6,8ba <_fstack+0x2ba>
 2d8:	6d5f 6c75 6973      	.byte	0x5f, 0x6d, 0x75, 0x6c, 0x73, 0x69
 2de:	33 00             	Address 0x00000000000002de is out of bounds.


Disassembly of section .debug_frame:

00000000 <.debug_frame>:
   0:	000c                	.2byte	0xc
   2:	0000                	.2byte	0x0
   4:	ffff                	.2byte	0xffff
   6:	ffff                	.2byte	0xffff
   8:	7c010003          	lb	zero,1984(sp)
   c:	0d01                	.2byte	0xd01
   e:	0002                	.2byte	0x2
  10:	0020                	.2byte	0x20
  12:	0000                	.2byte	0x0
  14:	0000                	.2byte	0x0
  16:	0000                	.2byte	0x0
  18:	0144                	.2byte	0x144
  1a:	1000                	.2byte	0x1000
  1c:	001c                	.2byte	0x1c
  1e:	0000                	.2byte	0x0
  20:	0e44                	.2byte	0xe44
  22:	4410                	.2byte	0x4410
  24:	0188                	.2byte	0x188
  26:	0c44                	.2byte	0xc44
  28:	0008                	.2byte	0x8
  2a:	c848                	.2byte	0xc848
  2c:	020c                	.2byte	0x20c
  2e:	4410                	.2byte	0x4410
  30:	000e                	.2byte	0xe
  32:	0000                	.2byte	0x0
  34:	0020                	.2byte	0x20
  36:	0000                	.2byte	0x0
  38:	0000                	.2byte	0x0
  3a:	0000                	.2byte	0x0
  3c:	0160                	.2byte	0x160
  3e:	1000                	.2byte	0x1000
  40:	001c                	.2byte	0x1c
  42:	0000                	.2byte	0x0
  44:	0e44                	.2byte	0xe44
  46:	4410                	.2byte	0x4410
  48:	0188                	.2byte	0x188
  4a:	0c44                	.2byte	0xc44
  4c:	0008                	.2byte	0x8
  4e:	c848                	.2byte	0xc848
  50:	020c                	.2byte	0x20c
  52:	4410                	.2byte	0x4410
  54:	000e                	.2byte	0xe
  56:	0000                	.2byte	0x0
  58:	0020                	.2byte	0x20
  5a:	0000                	.2byte	0x0
  5c:	0000                	.2byte	0x0
  5e:	0000                	.2byte	0x0
  60:	017c                	.2byte	0x17c
  62:	1000                	.2byte	0x1000
  64:	0028                	.2byte	0x28
  66:	0000                	.2byte	0x0
  68:	0e44                	.2byte	0xe44
  6a:	4420                	.2byte	0x4420
  6c:	0188                	.2byte	0x188
  6e:	0c44                	.2byte	0xc44
  70:	0008                	.2byte	0x8
  72:	c854                	.2byte	0xc854
  74:	020c                	.2byte	0x20c
  76:	4420                	.2byte	0x4420
  78:	000e                	.2byte	0xe
  7a:	0000                	.2byte	0x0
  7c:	0024                	.2byte	0x24
  7e:	0000                	.2byte	0x0
  80:	0000                	.2byte	0x0
  82:	0000                	.2byte	0x0
  84:	01a4                	.2byte	0x1a4
  86:	1000                	.2byte	0x1000
  88:	002c                	.2byte	0x2c
  8a:	0000                	.2byte	0x0
  8c:	0e44                	.2byte	0xe44
  8e:	4810                	.2byte	0x4810
  90:	0181                	.2byte	0x181
  92:	0288                	.2byte	0x288
  94:	0c44                	.2byte	0xc44
  96:	0008                	.2byte	0x8
  98:	c150                	.2byte	0xc150
  9a:	c844                	.2byte	0xc844
  9c:	020c                	.2byte	0x20c
  9e:	4410                	.2byte	0x4410
  a0:	000e                	.2byte	0xe
  a2:	0000                	.2byte	0x0
  a4:	000c                	.2byte	0xc
  a6:	0000                	.2byte	0x0
  a8:	ffff                	.2byte	0xffff
  aa:	ffff                	.2byte	0xffff
  ac:	7c010003          	lb	zero,1984(sp)
  b0:	0d01                	.2byte	0xd01
  b2:	0002                	.2byte	0x2
  b4:	0020                	.2byte	0x20
  b6:	0000                	.2byte	0x0
  b8:	00a4                	.2byte	0xa4
  ba:	0000                	.2byte	0x0
  bc:	01d0                	.2byte	0x1d0
  be:	1000                	.2byte	0x1000
  c0:	001c                	.2byte	0x1c
  c2:	0000                	.2byte	0x0
  c4:	0e44                	.2byte	0xe44
  c6:	4410                	.2byte	0x4410
  c8:	0188                	.2byte	0x188
  ca:	0c44                	.2byte	0xc44
  cc:	0008                	.2byte	0x8
  ce:	c848                	.2byte	0xc848
  d0:	020c                	.2byte	0x20c
  d2:	4410                	.2byte	0x4410
  d4:	000e                	.2byte	0xe
  d6:	0000                	.2byte	0x0
  d8:	0020                	.2byte	0x20
  da:	0000                	.2byte	0x0
  dc:	00a4                	.2byte	0xa4
  de:	0000                	.2byte	0x0
  e0:	01ec                	.2byte	0x1ec
  e2:	1000                	.2byte	0x1000
  e4:	001c                	.2byte	0x1c
  e6:	0000                	.2byte	0x0
  e8:	0e44                	.2byte	0xe44
  ea:	4410                	.2byte	0x4410
  ec:	0188                	.2byte	0x188
  ee:	0c44                	.2byte	0xc44
  f0:	0008                	.2byte	0x8
  f2:	c848                	.2byte	0xc848
  f4:	020c                	.2byte	0x20c
  f6:	4410                	.2byte	0x4410
  f8:	000e                	.2byte	0xe
  fa:	0000                	.2byte	0x0
  fc:	0020                	.2byte	0x20
  fe:	0000                	.2byte	0x0
 100:	00a4                	.2byte	0xa4
 102:	0000                	.2byte	0x0
 104:	1358                	.2byte	0x1358
 106:	1000                	.2byte	0x1000
 108:	0048                	.2byte	0x48
 10a:	0000                	.2byte	0x0
 10c:	0e44                	.2byte	0xe44
 10e:	4420                	.2byte	0x4420
 110:	0188                	.2byte	0x188
 112:	0c44                	.2byte	0xc44
 114:	0008                	.2byte	0x8
 116:	c874                	.2byte	0xc874
 118:	020c                	.2byte	0x20c
 11a:	4420                	.2byte	0x4420
 11c:	000e                	.2byte	0xe
 11e:	0000                	.2byte	0x0
 120:	0024                	.2byte	0x24
 122:	0000                	.2byte	0x0
 124:	00a4                	.2byte	0xa4
 126:	0000                	.2byte	0x0
 128:	13a0                	.2byte	0x13a0
 12a:	1000                	.2byte	0x1000
 12c:	0068                	.2byte	0x68
 12e:	0000                	.2byte	0x0
 130:	0e44                	.2byte	0xe44
 132:	4820                	.2byte	0x4820
 134:	0181                	.2byte	0x181
 136:	0288                	.2byte	0x288
 138:	0c44                	.2byte	0xc44
 13a:	0008                	.2byte	0x8
 13c:	4c02                	.2byte	0x4c02
 13e:	44c1                	.2byte	0x44c1
 140:	0cc8                	.2byte	0xcc8
 142:	2002                	.2byte	0x2002
 144:	0e44                	.2byte	0xe44
 146:	0000                	.2byte	0x0
 148:	0024                	.2byte	0x24
 14a:	0000                	.2byte	0x0
 14c:	00a4                	.2byte	0xa4
 14e:	0000                	.2byte	0x0
 150:	1408                	.2byte	0x1408
 152:	1000                	.2byte	0x1000
 154:	0054                	.2byte	0x54
 156:	0000                	.2byte	0x0
 158:	0e44                	.2byte	0xe44
 15a:	4820                	.2byte	0x4820
 15c:	0181                	.2byte	0x181
 15e:	0288                	.2byte	0x288
 160:	0c44                	.2byte	0xc44
 162:	0008                	.2byte	0x8
 164:	c178                	.2byte	0xc178
 166:	c844                	.2byte	0xc844
 168:	020c                	.2byte	0x20c
 16a:	4420                	.2byte	0x4420
 16c:	000e                	.2byte	0xe
 16e:	0000                	.2byte	0x0
 170:	0020                	.2byte	0x20
 172:	0000                	.2byte	0x0
 174:	00a4                	.2byte	0xa4
 176:	0000                	.2byte	0x0
 178:	145c                	.2byte	0x145c
 17a:	1000                	.2byte	0x1000
 17c:	0074                	.2byte	0x74
 17e:	0000                	.2byte	0x0
 180:	0e44                	.2byte	0xe44
 182:	4420                	.2byte	0x4420
 184:	0188                	.2byte	0x188
 186:	0c44                	.2byte	0xc44
 188:	0008                	.2byte	0x8
 18a:	6002                	.2byte	0x6002
 18c:	0cc8                	.2byte	0xcc8
 18e:	2002                	.2byte	0x2002
 190:	0e44                	.2byte	0xe44
 192:	0000                	.2byte	0x0
 194:	0020                	.2byte	0x20
 196:	0000                	.2byte	0x0
 198:	00a4                	.2byte	0xa4
 19a:	0000                	.2byte	0x0
 19c:	14d0                	.2byte	0x14d0
 19e:	1000                	.2byte	0x1000
 1a0:	0074                	.2byte	0x74
 1a2:	0000                	.2byte	0x0
 1a4:	0e44                	.2byte	0xe44
 1a6:	4420                	.2byte	0x4420
 1a8:	0188                	.2byte	0x188
 1aa:	0c44                	.2byte	0xc44
 1ac:	0008                	.2byte	0x8
 1ae:	6002                	.2byte	0x6002
 1b0:	0cc8                	.2byte	0xcc8
 1b2:	2002                	.2byte	0x2002
 1b4:	0e44                	.2byte	0xe44
 1b6:	0000                	.2byte	0x0
 1b8:	0020                	.2byte	0x20
 1ba:	0000                	.2byte	0x0
 1bc:	00a4                	.2byte	0xa4
 1be:	0000                	.2byte	0x0
 1c0:	0024                	.2byte	0x24
 1c2:	3800                	.2byte	0x3800
 1c4:	0068                	.2byte	0x68
 1c6:	0000                	.2byte	0x0
 1c8:	0e44                	.2byte	0xe44
 1ca:	4420                	.2byte	0x4420
 1cc:	0188                	.2byte	0x188
 1ce:	0c44                	.2byte	0xc44
 1d0:	0008                	.2byte	0x8
 1d2:	5402                	.2byte	0x5402
 1d4:	0cc8                	.2byte	0xcc8
 1d6:	2002                	.2byte	0x2002
 1d8:	0e44                	.2byte	0xe44
 1da:	0000                	.2byte	0x0
 1dc:	0024                	.2byte	0x24
 1de:	0000                	.2byte	0x0
 1e0:	00a4                	.2byte	0xa4
 1e2:	0000                	.2byte	0x0
 1e4:	008c                	.2byte	0x8c
 1e6:	3800                	.2byte	0x3800
 1e8:	00f0                	.2byte	0xf0
 1ea:	0000                	.2byte	0x0
 1ec:	0e44                	.2byte	0xe44
 1ee:	4830                	.2byte	0x4830
 1f0:	0181                	.2byte	0x181
 1f2:	0288                	.2byte	0x288
 1f4:	0c44                	.2byte	0xc44
 1f6:	0008                	.2byte	0x8
 1f8:	d402                	.2byte	0xd402
 1fa:	44c1                	.2byte	0x44c1
 1fc:	0cc8                	.2byte	0xcc8
 1fe:	3002                	.2byte	0x3002
 200:	0e44                	.2byte	0xe44
 202:	0000                	.2byte	0x0
 204:	0024                	.2byte	0x24
 206:	0000                	.2byte	0x0
 208:	00a4                	.2byte	0xa4
 20a:	0000                	.2byte	0x0
 20c:	017c                	.2byte	0x17c
 20e:	3800                	.2byte	0x3800
 210:	0080                	.2byte	0x80
 212:	0000                	.2byte	0x0
 214:	0e44                	.2byte	0xe44
 216:	4820                	.2byte	0x4820
 218:	0181                	.2byte	0x181
 21a:	0288                	.2byte	0x288
 21c:	0c44                	.2byte	0xc44
 21e:	0008                	.2byte	0x8
 220:	6402                	.2byte	0x6402
 222:	44c1                	.2byte	0x44c1
 224:	0cc8                	.2byte	0xcc8
 226:	2002                	.2byte	0x2002
 228:	0e44                	.2byte	0xe44
 22a:	0000                	.2byte	0x0
 22c:	0024                	.2byte	0x24
 22e:	0000                	.2byte	0x0
 230:	00a4                	.2byte	0xa4
 232:	0000                	.2byte	0x0
 234:	01fc                	.2byte	0x1fc
 236:	3800                	.2byte	0x3800
 238:	0118                	.2byte	0x118
 23a:	0000                	.2byte	0x0
 23c:	0e44                	.2byte	0xe44
 23e:	4830                	.2byte	0x4830
 240:	0181                	.2byte	0x181
 242:	0288                	.2byte	0x288
 244:	0c44                	.2byte	0xc44
 246:	0008                	.2byte	0x8
 248:	c100fc03          	.4byte	0xc100fc03
 24c:	c844                	.2byte	0xc844
 24e:	020c                	.2byte	0x20c
 250:	4430                	.2byte	0x4430
 252:	000e                	.2byte	0xe
 254:	0020                	.2byte	0x20
 256:	0000                	.2byte	0x0
 258:	00a4                	.2byte	0xa4
 25a:	0000                	.2byte	0x0
 25c:	0314                	.2byte	0x314
 25e:	3800                	.2byte	0x3800
 260:	0184                	.2byte	0x184
 262:	0000                	.2byte	0x0
 264:	0e44                	.2byte	0xe44
 266:	4430                	.2byte	0x4430
 268:	0188                	.2byte	0x188
 26a:	0c44                	.2byte	0xc44
 26c:	0008                	.2byte	0x8
 26e:	c8017003          	.4byte	0xc8017003
 272:	020c                	.2byte	0x20c
 274:	4430                	.2byte	0x4430
 276:	000e                	.2byte	0xe
 278:	0024                	.2byte	0x24
 27a:	0000                	.2byte	0x0
 27c:	00a4                	.2byte	0xa4
 27e:	0000                	.2byte	0x0
 280:	0498                	.2byte	0x498
 282:	3800                	.2byte	0x3800
 284:	0070                	.2byte	0x70
 286:	0000                	.2byte	0x0
 288:	0e44                	.2byte	0xe44
 28a:	4830                	.2byte	0x4830
 28c:	0181                	.2byte	0x181
 28e:	0288                	.2byte	0x288
 290:	0c44                	.2byte	0xc44
 292:	0008                	.2byte	0x8
 294:	5402                	.2byte	0x5402
 296:	44c1                	.2byte	0x44c1
 298:	0cc8                	.2byte	0xcc8
 29a:	3002                	.2byte	0x3002
 29c:	0e44                	.2byte	0xe44
 29e:	0000                	.2byte	0x0
 2a0:	0024                	.2byte	0x24
 2a2:	0000                	.2byte	0x0
 2a4:	00a4                	.2byte	0xa4
 2a6:	0000                	.2byte	0x0
 2a8:	0508                	.2byte	0x508
 2aa:	3800                	.2byte	0x3800
 2ac:	0034                	.2byte	0x34
 2ae:	0000                	.2byte	0x0
 2b0:	0e44                	.2byte	0xe44
 2b2:	4810                	.2byte	0x4810
 2b4:	0181                	.2byte	0x181
 2b6:	0288                	.2byte	0x288
 2b8:	0c44                	.2byte	0xc44
 2ba:	0008                	.2byte	0x8
 2bc:	c158                	.2byte	0xc158
 2be:	c844                	.2byte	0xc844
 2c0:	020c                	.2byte	0x20c
 2c2:	4410                	.2byte	0x4410
 2c4:	000e                	.2byte	0xe
 2c6:	0000                	.2byte	0x0
 2c8:	000c                	.2byte	0xc
 2ca:	0000                	.2byte	0x0
 2cc:	ffff                	.2byte	0xffff
 2ce:	ffff                	.2byte	0xffff
 2d0:	7c010003          	lb	zero,1984(sp)
 2d4:	0d01                	.2byte	0xd01
 2d6:	0002                	.2byte	0x2
 2d8:	0020                	.2byte	0x20
 2da:	0000                	.2byte	0x0
 2dc:	02c8                	.2byte	0x2c8
 2de:	0000                	.2byte	0x0
 2e0:	0208                	.2byte	0x208
 2e2:	1000                	.2byte	0x1000
 2e4:	001c                	.2byte	0x1c
 2e6:	0000                	.2byte	0x0
 2e8:	0e44                	.2byte	0xe44
 2ea:	4410                	.2byte	0x4410
 2ec:	0188                	.2byte	0x188
 2ee:	0c44                	.2byte	0xc44
 2f0:	0008                	.2byte	0x8
 2f2:	c848                	.2byte	0xc848
 2f4:	020c                	.2byte	0x20c
 2f6:	4410                	.2byte	0x4410
 2f8:	000e                	.2byte	0xe
 2fa:	0000                	.2byte	0x0
 2fc:	0020                	.2byte	0x20
 2fe:	0000                	.2byte	0x0
 300:	02c8                	.2byte	0x2c8
 302:	0000                	.2byte	0x0
 304:	0224                	.2byte	0x224
 306:	1000                	.2byte	0x1000
 308:	001c                	.2byte	0x1c
 30a:	0000                	.2byte	0x0
 30c:	0e44                	.2byte	0xe44
 30e:	4410                	.2byte	0x4410
 310:	0188                	.2byte	0x188
 312:	0c44                	.2byte	0xc44
 314:	0008                	.2byte	0x8
 316:	c848                	.2byte	0xc848
 318:	020c                	.2byte	0x20c
 31a:	4410                	.2byte	0x4410
 31c:	000e                	.2byte	0xe
 31e:	0000                	.2byte	0x0
 320:	0024                	.2byte	0x24
 322:	0000                	.2byte	0x0
 324:	02c8                	.2byte	0x2c8
 326:	0000                	.2byte	0x0
 328:	0240                	.2byte	0x240
 32a:	1000                	.2byte	0x1000
 32c:	0068                	.2byte	0x68
 32e:	0000                	.2byte	0x0
 330:	0e44                	.2byte	0xe44
 332:	4820                	.2byte	0x4820
 334:	0181                	.2byte	0x181
 336:	0288                	.2byte	0x288
 338:	0c44                	.2byte	0xc44
 33a:	0008                	.2byte	0x8
 33c:	4c02                	.2byte	0x4c02
 33e:	44c1                	.2byte	0x44c1
 340:	0cc8                	.2byte	0xcc8
 342:	2002                	.2byte	0x2002
 344:	0e44                	.2byte	0xe44
 346:	0000                	.2byte	0x0
 348:	0024                	.2byte	0x24
 34a:	0000                	.2byte	0x0
 34c:	02c8                	.2byte	0x2c8
 34e:	0000                	.2byte	0x0
 350:	02a8                	.2byte	0x2a8
 352:	1000                	.2byte	0x1000
 354:	0054                	.2byte	0x54
 356:	0000                	.2byte	0x0
 358:	0e44                	.2byte	0xe44
 35a:	4820                	.2byte	0x4820
 35c:	0181                	.2byte	0x181
 35e:	0288                	.2byte	0x288
 360:	0c44                	.2byte	0xc44
 362:	0008                	.2byte	0x8
 364:	c178                	.2byte	0xc178
 366:	c844                	.2byte	0xc844
 368:	020c                	.2byte	0x20c
 36a:	4420                	.2byte	0x4420
 36c:	000e                	.2byte	0xe
 36e:	0000                	.2byte	0x0
 370:	0024                	.2byte	0x24
 372:	0000                	.2byte	0x0
 374:	02c8                	.2byte	0x2c8
 376:	0000                	.2byte	0x0
 378:	02fc                	.2byte	0x2fc
 37a:	1000                	.2byte	0x1000
 37c:	105c                	.2byte	0x105c
 37e:	0000                	.2byte	0x0
 380:	0e44                	.2byte	0xe44
 382:	4820                	.2byte	0x4820
 384:	0181                	.2byte	0x181
 386:	0288                	.2byte	0x288
 388:	0c44                	.2byte	0xc44
 38a:	0008                	.2byte	0x8
 38c:	c1104003          	lbu	zero,-1007(zero) # fffffc11 <_esram+0xc7fff6d5>
 390:	c844                	.2byte	0xc844
 392:	020c                	.2byte	0x20c
 394:	4420                	.2byte	0x4420
 396:	000e                	.2byte	0xe

Disassembly of section .debug_rnglists:

00000000 <.debug_rnglists>:
   0:	007e                	.2byte	0x7e
   2:	0000                	.2byte	0x0
   4:	0005                	.2byte	0x5
   6:	0004                	.2byte	0x4
   8:	0000                	.2byte	0x0
   a:	0000                	.2byte	0x0
   c:	d006                	.2byte	0xd006
   e:	0001                	.2byte	0x1
  10:	0810                	.2byte	0x810
  12:	0002                	.2byte	0x2
  14:	0610                	.2byte	0x610
  16:	1358                	.2byte	0x1358
  18:	1000                	.2byte	0x1000
  1a:	13a0                	.2byte	0x13a0
  1c:	1000                	.2byte	0x1000
  1e:	a006                	.2byte	0xa006
  20:	08100013          	li	zero,129
  24:	0014                	.2byte	0x14
  26:	0610                	.2byte	0x610
  28:	1408                	.2byte	0x1408
  2a:	1000                	.2byte	0x1000
  2c:	145c                	.2byte	0x145c
  2e:	1000                	.2byte	0x1000
  30:	5c06                	.2byte	0x5c06
  32:	0014                	.2byte	0x14
  34:	d010                	.2byte	0xd010
  36:	0014                	.2byte	0x14
  38:	0610                	.2byte	0x610
  3a:	14d0                	.2byte	0x14d0
  3c:	1000                	.2byte	0x1000
  3e:	1544                	.2byte	0x1544
  40:	1000                	.2byte	0x1000
  42:	2406                	.2byte	0x2406
  44:	0000                	.2byte	0x0
  46:	8c38                	.2byte	0x8c38
  48:	0000                	.2byte	0x0
  4a:	0638                	.2byte	0x638
  4c:	008c                	.2byte	0x8c
  4e:	3800                	.2byte	0x3800
  50:	017c                	.2byte	0x17c
  52:	3800                	.2byte	0x3800
  54:	7c06                	.2byte	0x7c06
  56:	0001                	.2byte	0x1
  58:	fc38                	.2byte	0xfc38
  5a:	0001                	.2byte	0x1
  5c:	0638                	.2byte	0x638
  5e:	01fc                	.2byte	0x1fc
  60:	3800                	.2byte	0x3800
  62:	0314                	.2byte	0x314
  64:	3800                	.2byte	0x3800
  66:	1406                	.2byte	0x1406
  68:	98380003          	lb	zero,-1661(a6)
  6c:	0004                	.2byte	0x4
  6e:	0638                	.2byte	0x638
  70:	0498                	.2byte	0x498
  72:	3800                	.2byte	0x3800
  74:	0508                	.2byte	0x508
  76:	3800                	.2byte	0x3800
  78:	0806                	.2byte	0x806
  7a:	0005                	.2byte	0x5
  7c:	3c38                	.2byte	0x3c38
  7e:	0005                	.2byte	0x5
  80:	0038                	.2byte	0x38
